(dp0
S'GAACGT'
p1
F0.2845172389936185
sS'CTTCTT'
p2
F0.01698435568473079
sS'CACCCT'
p3
F0.2577434631106907
sS'GAACGG'
p4
F0.53549117019889
sS'GAACGC'
p5
F0.5248269292469842
sS'GAACGA'
p6
F0.36013360538632777
sS'CACCCA'
p7
F0.09468426305048361
sS'CTTCTA'
p8
F-0.09658944151735745
sS'CACCCC'
p9
F0.058909076916449754
sS'CTTCTC'
p10
F0.2352749452015797
sS'CACCCG'
p11
F0.5814374434106158
sS'CTTCTG'
p12
F0.02491340703795598
sS'CGTGTG'
p13
F0.23984607083969448
sS'TAAGGT'
p14
I0
sS'CGTGTC'
p15
F0.436583430594523
sS'CGTGTA'
p16
F0.11901644201675748
sS'GGAAAT'
p17
F0.1808124525734767
sS'TAAGGG'
p18
I0
sS'CGTGTT'
p19
F0.44405388734805795
sS'TAAGGC'
p20
I0
sS'TAAGGA'
p21
I0
sS'TCACTG'
p22
F-0.15846543187243414
sS'GTCAAA'
p23
F-0.013840634409028637
sS'CCCGCT'
p24
F0.577741297850652
sS'GTCAAG'
p25
F0.39354012730719906
sS'CTGTCC'
p26
F0.04374362258120528
sS'TCAGAG'
p27
F0.3151724878035983
sS'CTGTCA'
p28
F-0.21496867270391667
sS'CTGTCG'
p29
F0.1400431354263101
sS'GTATCT'
p30
F-0.1208263956813278
sS'TCAGAA'
p31
F-0.05698781023067855
sS'GTCAAT'
p32
F0.007421971368650353
sS'GTATCA'
p33
F-0.20365500734613867
sS'GTATCC'
p34
F-0.17531858096654646
sS'GTATCG'
p35
F0.14744525268528086
sS'CTGTCT'
p36
F-0.01659279374069451
sS'GGTGTC'
p37
F0.5732997119712684
sS'GGTGTA'
p38
F0.33400670614110317
sS'GGTGTG'
p39
F0.6484651147775468
sS'TATCCT'
p40
F0.07174391539476051
sS'CCGGGG'
p41
F0.49543079341288404
sS'TTCTGT'
p42
F-0.42534977912648986
sS'ATTCCT'
p43
F0.2760445488210727
sS'CCGGGC'
p44
F0.6456415334885878
sS'CCGGGA'
p45
F0.9077626207196842
sS'TATCCA'
p46
F-0.1552004677004268
sS'TATCCC'
p47
F-0.17238122893274813
sS'GTTCTG'
p48
F0.06724104148633014
sS'TACACC'
p49
F0.12155808706987953
sS'TATCCG'
p50
F0.20630883965832508
sS'GGTGTT'
p51
F0.6497951823038133
sS'ATTCCG'
p52
F0.3848923545241076
sS'TTCTGG'
p53
F0.027428666033020684
sS'CCGGGT'
p54
F0.9435433440896265
sS'ATTCCC'
p55
F0.10536647815545121
sS'TTCTGC'
p56
F-0.1393770514849386
sS'ATTCCA'
p57
F0.017318281242848028
sS'GTTCTA'
p58
F-0.016242246110480963
sS'TGCACT'
p59
F-0.05864628796250468
sS'TATCTT'
p60
F-0.3235061616222097
sS'CGCGGT'
p61
F0.87504342099539
sS'CCCGCG'
p62
F1.1510295466085898
sS'CGCGGG'
p63
F0.6856466951601715
sS'CGCGGC'
p64
F1.4863637734425565
sS'CGCGGA'
p65
F0.6798171514994477
sS'ACCTGT'
p66
F-0.8069315106233161
sS'TCATGT'
p67
F-0.5135098679642031
sS'CCCGCC'
p68
F0.9231904333030461
sS'TTACAG'
p69
F-0.3431691180864246
sS'CTCCGC'
p70
F0.66791792819974
sS'TTACAA'
p71
F-0.40644312983319697
sS'TTACAC'
p72
F-0.5071962899896294
sS'CTCCGG'
p73
F0.7170551594117958
sS'TCATGC'
p74
F-0.40596697803793635
sS'ACCTGG'
p75
F-0.45169197490349305
sS'GGCGAA'
p76
F0.5971002456369172
sS'GTAAGC'
p77
F-0.39217037593886256
sS'TCATGG'
p78
F0.13865238425800175
sS'ACCTGC'
p79
F-0.9872578187369199
sS'ACCTGA'
p80
I0
sS'GTATTT'
p81
F-0.49924015904366226
sS'CTCGAT'
p82
F0.4219173575319678
sS'CTCCGT'
p83
F0.6792442035510411
sS'GCCTGA'
p84
I0
sS'GCCTGC'
p85
F0.13809032296407459
sS'GCCTGG'
p86
F0.7208540033875386
sS'TCTTGC'
p87
F-0.17767616496028438
sS'TAAAGG'
p88
I0
sS'CAAATT'
p89
F-0.5788267815241015
sS'TAAAGA'
p90
I0
sS'GCATAA'
p91
I0
sS'AAGGTC'
p92
F0.3838263544520384
sS'TATTAG'
p93
I0
sS'GCCTGT'
p94
F0.05335939137280445
sS'TATCTA'
p95
F-0.4507174396738214
sS'TAAAGT'
p96
I0
sS'CAAATA'
p97
F-0.6711004111442084
sS'CAAATC'
p98
F-0.30800767738591966
sS'CGTGCT'
p99
F0.8953602443265587
sS'CAAATG'
p100
F-0.12818960743220878
sS'AATACT'
p101
F-0.2384010289224021
sS'TATCTC'
p102
F-0.21684090357543886
sS'CCGGCG'
p103
F2.248652882221965
sS'GGCATG'
p104
F0.3815402204075527
sS'GGCATA'
p105
F-0.030239551143606817
sS'GGCGAC'
p106
F0.819185603530389
sS'GGCATC'
p107
F0.5314740291861153
sS'AATACG'
p108
F-0.4407739153564233
sS'AATACA'
p109
F-0.4844766507468893
sS'AATACC'
p110
F-0.3583641332510538
sS'GGCATT'
p111
F0.25744508145559847
sS'TATCTG'
p112
F-0.3387126506992731
sS'TGCACA'
p113
F-0.3346616817377415
sS'GAGCAC'
p114
F0.4171290286635193
sS'ACTGAT'
p115
F0.3865426205322288
sS'GAGCAG'
p116
F0.6733808239012422
sS'AGTAGT'
p117
F-0.022563965910759896
sS'TCTCGC'
p118
F0.3040286505551271
sS'TCTCGA'
p119
F-0.08448981758557281
sS'TCTCGG'
p120
F0.27973775681685864
sS'ACTGAG'
p121
F0.5329661951683864
sS'AGTAGA'
p122
F-0.18438033596838446
sS'TTTGGT'
p123
F-0.05077770430033703
sS'AGTAGG'
p124
F0.02806937598237781
sS'ACTGAA'
p125
F0.12037573727948234
sS'AAGGTT'
p126
F0.33293078058741177
sS'GGGTCA'
p127
F0.3017174009309486
sS'GTGTCG'
p128
F0.4027263577644663
sS'TCGAAC'
p129
F0.13009883312646586
sS'TCGAAA'
p130
F-0.032663560292858114
sS'GTGTCC'
p131
F0.07800682645137265
sS'CGCACG'
p132
F0.06585793687177763
sS'GTGTCA'
p133
F-0.012748465303828914
sS'GTTGTA'
p134
F0.005129294398793999
sS'CTTGCT'
p135
F0.48957966767440286
sS'TCGGTC'
p136
F0.39727056152947965
sS'GTGTCT'
p137
F0.08275868740997899
sS'TTGAAG'
p138
F0.31045516897294484
sS'TCGAAT'
p139
F0.012338681145289339
sS'CTTGCG'
p140
F0.4221907410026643
sS'CTTGCA'
p141
F0.18767063286415106
sS'CTTGCC'
p142
F0.5173307368076003
sS'CGAAAG'
p143
F-0.07043877859690524
sS'CGAAAA'
p144
F-0.3580178058946597
sS'CGAAAC'
p145
F-0.17264435798163547
sS'AATCAT'
p146
F-0.49695146733532525
sS'AAATGC'
p147
F-0.29493216423337154
sS'CACGGC'
p148
F0.702680034458952
sS'AAATGA'
p149
I0
sS'ACAGTC'
p150
F0.07809239328878924
sS'CACGGG'
p151
F0.8440091872554213
sS'ACAGTA'
p152
F-0.24989531561290992
sS'TAGAGC'
p153
I0
sS'CGAAAT'
p154
F-0.43743355220818897
sS'ACAGTT'
p155
F-0.004179929735977422
sS'AATCAG'
p156
F-0.10557596407123067
sS'CACGGT'
p157
F0.6234987884113272
sS'AAATGT'
p158
F-0.5184732874957532
sS'AATCAC'
p159
F-0.41617065234262907
sS'TTTGTA'
p160
F-0.5517713608860644
sS'GCTCAA'
p161
F0.4279043457860344
sS'TCTAGT'
p162
F-0.13615471863178247
sS'TTGCCG'
p163
F0.6412657334282998
sS'ATACGT'
p164
F-0.7499604104144852
sS'GGGTAT'
p165
F0.3858557716117389
sS'ATACGA'
p166
F-0.4422975515878536
sS'TCTAGG'
p167
F-0.03162692000829709
sS'ATACGC'
p168
F-0.31814629385696747
sS'TCTAGA'
p169
F-0.019920314229077845
sS'GGGTAG'
p170
I0
sS'TCTAGC'
p171
F0.006571519541092077
sS'ATACGG'
p172
F-0.1642830834075284
sS'TGACTA'
p173
I0
sS'TTTGTG'
p174
F-0.15118446127783658
sS'TGGGCC'
p175
F0.5113802055197377
sS'AGATGT'
p176
F-0.3128836097590528
sS'TCGCCC'
p177
F0.1770083889944442
sS'TCGCCA'
p178
F0.2585182973606518
sS'GGGTCG'
p179
F0.433834722166372
sS'TCGCCG'
p180
F0.8609099377936227
sS'GGTAAT'
p181
F-0.02793398155472973
sS'ACCCAT'
p182
F-0.2574484535033558
sS'GTCAAC'
p183
F0.1416984396623733
sS'ACCCAC'
p184
F-0.22293760237519195
sS'GGTAAC'
p185
F0.24964194467883638
sS'ACCCAA'
p186
F-0.22960919888680661
sS'AGATGG'
p187
F0.031973757825241055
sS'ACCCAG'
p188
F0.17136812164175155
sS'AGATGA'
p189
I0
sS'TCGCCT'
p190
F0.5525245094976705
sS'AGATGC'
p191
F-0.29839895859768745
sS'TTTGAG'
p192
F0.21953378856286854
sS'CCCCAT'
p193
F-0.2237425970114217
sS'TGGTCT'
p194
F0.013999818035387603
sS'TTGGGT'
p195
F0.1867566956783375
sS'CACTAG'
p196
I0
sS'CACTAA'
p197
I0
sS'CACTAC'
p198
F0.05563877169009154
sS'CCCCAA'
p199
F-0.16822526916159042
sS'CCCCAC'
p200
F-0.3167072102333058
sS'CCCCAG'
p201
F0.2005565107692338
sS'CACTAT'
p202
F-0.3753157706602869
sS'CTATCG'
p203
F0.1477117727807293
sS'TCGGTT'
p204
F0.2196534135025514
sS'TTGGGA'
p205
F0.2307677715035084
sS'TTGGGC'
p206
F-0.011989070086782606
sS'CTCGAG'
p207
F0.7120334716934383
sS'TAGTGG'
p208
I0
sS'TTTCTG'
p209
F-0.45003651442167014
sS'TGCAGC'
p210
F-0.7134718609974087
sS'TGCCTC'
p211
F-0.19830069883907725
sS'TGCCTA'
p212
F-0.4358062589254107
sS'TGCAGG'
p213
F-0.6433917067088119
sS'TTTCCG'
p214
F0.03857096320744433
sS'GTGGCC'
p215
F0.6099259812220532
sS'TCAGAC'
p216
F0.264304689897896
sS'TTTCTT'
p217
F-0.6004762542254711
sS'TGCCTT'
p218
F-0.15465246197231644
sS'TGCAGT'
p219
F-0.15599081274457874
sS'TAGTGC'
p220
I0
sS'GTGAGC'
p221
F0.37138843376243524
sS'AAGGAA'
p222
F0.23030521476375115
sS'AAGGAC'
p223
F0.4560580862306663
sS'AAGGAG'
p224
F0.6166920390012925
sS'ATATGC'
p225
F-0.44042154658909827
sS'GTTCCA'
p226
F0.3463014017539813
sS'ATATGA'
p227
I0
sS'TACGAA'
p228
F0.1293715506639968
sS'ATATGG'
p229
F-0.12264258016572362
sS'AAGGAT'
p230
F0.4281575892746815
sS'CTATCA'
p231
F-0.246723124852777
sS'TGGTTT'
p232
F-0.5807841871089252
sS'ATATGT'
p233
F-0.6671918570365166
sS'GGTCCC'
p234
F0.7004471530266599
sS'GCCCAG'
p235
F0.5607079585518717
sS'CCACTG'
p236
F0.1588902948166322
sS'GCCCAA'
p237
F0.18043115800824389
sS'GGTCCG'
p238
F0.9382791040972692
sS'AGGTCT'
p239
F0.01191251424022617
sS'TGTGTC'
p240
F-0.2694238307013835
sS'AGACCC'
p241
F0.09804262024317892
sS'AGACCA'
p242
F0.023473624293228683
sS'AGACCG'
p243
F0.46186344576661553
sS'CTTCGC'
p244
F0.31253027021316604
sS'ATGCAA'
p245
F-0.117667115615807
sS'AGGTCC'
p246
F-0.1283315442766998
sS'AGGTCA'
p247
F-0.05873378055553141
sS'AGGTCG'
p248
F0.2943372653871471
sS'GGTCCT'
p249
F0.8397927028542578
sS'TCCGGA'
p250
F0.5188849018780948
sS'CTTAGC'
p251
F-0.011425442432761534
sS'ATTGTG'
p252
F0.1471880961701763
sS'CTTAGA'
p253
F0.03821508133948021
sS'ATGCAC'
p254
F-0.10393908908621537
sS'CTTAGG'
p255
F0.10772038354892856
sS'ATTGTC'
p256
F0.10381172297979689
sS'ATTGTA'
p257
F-0.34199036046050896
sS'CGCTAC'
p258
F0.24001469615025917
sS'ATTTTG'
p259
F-0.4940341958205383
sS'CGCTAA'
p260
I0
sS'ATTTTA'
p261
F-0.7700645263135667
sS'CGCTAG'
p262
I0
sS'ATTTTC'
p263
F-0.5071062677100329
sS'GAGGTC'
p264
F0.7804220265566921
sS'TAGCAG'
p265
I0
sS'GATACT'
p266
F0.2743143015863219
sS'TAGCAC'
p267
I0
sS'TAGCAA'
p268
I0
sS'GAGGTT'
p269
F0.6991917066131307
sS'ATTTTT'
p270
F-0.9643697508284041
sS'GCCTTG'
p271
F0.4148114848529416
sS'GTGGGG'
p272
F0.3193880344948268
sS'GCCTTA'
p273
F0.21748527639019044
sS'TTGACA'
p274
F-0.1773962324867565
sS'CGCTAT'
p275
F0.11006159936383107
sS'GATACG'
p276
F0.25179413059748956
sS'TAGCAT'
p277
I0
sS'GATACC'
p278
F0.2313302199171649
sS'GATACA'
p279
F0.07454411605687027
sS'TGAGCT'
p280
I0
sS'GTCACC'
p281
F0.46232325997780954
sS'GATCAT'
p282
F0.02404544067853965
sS'TGGCAC'
p283
F0.1554687111383346
sS'AAGACA'
p284
F-0.09746654509897057
sS'AAGACC'
p285
F0.18567722934404587
sS'ACAATG'
p286
F-0.051929494056796734
sS'AAGACG'
p287
F0.26929452917126423
sS'CCACTT'
p288
F0.10716108600620275
sS'TGAGCG'
p289
I0
sS'GATCAC'
p290
F0.14522055459959257
sS'GATCAA'
p291
F0.08173469897061574
sS'AAGACT'
p292
F0.1698198330788909
sS'GAAGGG'
p293
F0.6843083443879092
sS'CTTCCA'
p294
F0.18759153360486613
sS'GCGGTA'
p295
F0.5166502528690908
sS'GCGGTG'
p296
F1.088423764770519
sS'CGGTGT'
p297
F0.09482163280709412
sS'TCGTTA'
p298
F-0.15013671255551134
sS'TCGTTC'
p299
F0.08165220405500948
sS'CTTCCC'
p300
F0.3658672634833514
sS'ACTTGT'
p301
F-0.26139134103577216
sS'TTGGAG'
p302
F0.5132028017216763
sS'TGTGTG'
p303
F-0.38088068885416393
sS'GCGGTT'
p304
F0.8288608807488131
sS'ACTTGC'
p305
F-0.20478942979848272
sS'ATGTGA'
p306
I0
sS'ACTTGA'
p307
I0
sS'CGGTGG'
p308
F0.8035805301998131
sS'ACTTGG'
p309
F-0.009467784331606267
sS'CGGTGA'
p310
I0
sS'CGGTGC'
p311
F0.4985600518030272
sS'TGCCGC'
p312
F0.25149451383368926
sS'TTCCTA'
p313
F-0.501560568800971
sS'TAGACT'
p314
I0
sS'TTCCTC'
p315
F0.10528365285112785
sS'ATGTGC'
p316
F-0.3343499332560821
sS'TGGGTT'
p317
F0.05717175768668494
sS'TTCCTG'
p318
F-0.21777965003774497
sS'TCCTTT'
p319
F-0.40162383374833166
sS'GACCCA'
p320
F0.543871883543781
sS'TTCCGT'
p321
F0.2755250286222667
sS'TAGACG'
p322
I0
sS'TTCCTT'
p323
F-0.2518946822037185
sS'TAGACC'
p324
I0
sS'TAGACA'
p325
I0
sS'TCCTTG'
p326
F-0.022642238323678506
sS'TCCTTA'
p327
F-0.3520337112069651
sS'TCCTTC'
p328
F0.0162107694217133
sS'ATCTCT'
p329
F-0.10057217697150515
sS'TCCGCA'
p330
F0.32307577325412085
sS'ACCGTT'
p331
F0.38073904443298856
sS'TGGCGC'
p332
F0.2671850193435322
sS'TTTACG'
p333
F-0.5843900979398271
sS'TGGCGA'
p334
F0.08450004692783579
sS'GGCCAT'
p335
F0.37436306513063744
sS'ATCTCG'
p336
F0.10814699898785382
sS'ATCTCA'
p337
F-0.16562079669687185
sS'ATCTCC'
p338
F0.22429629489121414
sS'GGCCAA'
p339
F0.37570639758294744
sS'GGCCAC'
p340
F0.5580678623856632
sS'ACCGTG'
p341
F0.5056149536296921
sS'ACCGTA'
p342
F0.1723132677860644
sS'GGCCAG'
p343
F0.6369419694658168
sS'ACCGTC'
p344
F0.8954438107077869
sS'AGAATT'
p345
F-0.38290167396924296
sS'GGCAGT'
p346
F0.3956120837976535
sS'CCATAA'
p347
I0
sS'CAAAGG'
p348
F0.017767432856687554
sS'CCATAC'
p349
F-0.0015621982900569196
sS'CAAAGA'
p350
F-0.3178416326856497
sS'GAAACG'
p351
F-0.04285288850138222
sS'CAAAGC'
p352
F-0.14852193434547797
sS'CAACGT'
p353
F0.0571543493498993
sS'GGCAGA'
p354
F0.26261410648203176
sS'GGCAGC'
p355
F0.19848350214636853
sS'CGTGAG'
p356
F0.2706414711952182
sS'GGCAGG'
p357
F0.1740264632301846
sS'CAACGC'
p358
F0.13121098349583346
sS'CAAAGT'
p359
F-0.37616045481803045
sS'CAACGA'
p360
F-0.12697479690052751
sS'CTAACC'
p361
F-0.21377391409097307
sS'CAACGG'
p362
F0.3736213151947272
sS'CGTGAA'
p363
F0.36764126226827815
sS'GGGGGT'
p364
F0.4764789773029042
sS'TACGCT'
p365
F0.5138768098871329
sS'GAAACC'
p366
F0.04150894010458764
sS'CGATCT'
p367
F0.29696140921329583
sS'CTCTAG'
p368
I0
sS'TGAGCC'
p369
I0
sS'CTCTAA'
p370
I0
sS'CTCTAC'
p371
F0.19302192761529258
sS'GGGGGG'
p372
F-0.05471599433407228
sS'CGATCC'
p373
F0.15399402557232883
sS'CGATCA'
p374
F0.03327056966818556
sS'GGGGGC'
p375
F0.25149451383368926
sS'CGATCG'
p376
F0.05362348045476593
sS'GGGGGA'
p377
F0.4191114653456657
sS'TACGCG'
p378
F0.7296635241445454
sS'CTCTAT'
p379
F-0.19881033937319867
sS'TTCTGA'
p380
I0
sS'CAGACC'
p381
F0.22012075843178608
sS'CAGACA'
p382
F-0.05809711985526896
sS'CAGACG'
p383
F0.37562654691341785
sS'TGCGTG'
p384
F-0.12402160666953699
sS'TAGTTG'
p385
I0
sS'GCTAAT'
p386
F0.2165674647385017
sS'TAGTTC'
p387
I0
sS'TAGTTA'
p388
I0
sS'CAGACT'
p389
F0.3725439406137718
sS'GCTAAG'
p390
F0.5820550967955999
sS'TAGTTT'
p391
I0
sS'GCTAAC'
p392
F0.2386212525785314
sS'GCTAAA'
p393
F0.2072410627599591
sS'TAAGTG'
p394
I0
sS'TGCTGC'
p395
F-0.09229530709516329
sS'AACCCT'
p396
F0.21415146585862058
sS'TATCAA'
p397
F-0.5680143257865551
sS'AACCCC'
p398
F0.12952701674115485
sS'AACCCA'
p399
F0.053247305046315495
sS'AACCCG'
p400
F0.5046180604386135
sS'TGCATC'
p401
F-0.2833190710998596
sS'AGATTT'
p402
F-0.448779679115774
sS'ACGTAA'
p403
I0
sS'AACTGG'
p404
F0.25661395796972086
sS'AACTGA'
p405
I0
sS'AACTGC'
p406
F0.09882022919202335
sS'CCCAGA'
p407
F-0.10714224520676176
sS'CCCAGC'
p408
F0.3099830811992862
sS'CCCAGG'
p409
F0.13280472650239078
sS'AACTGT'
p410
F-0.19455420788393946
sS'AGTTTT'
p411
F-0.6221166831627779
sS'ACGTAT'
p412
F-0.7063844539013457
sS'CCCAGT'
p413
F0.18049671684026555
sS'CTCCAA'
p414
F0.03271428102814138
sS'TTGACG'
p415
F0.28391369747099493
sS'TATAAT'
p416
F-0.6510236567729434
sS'CGCATA'
p417
F-0.144313111756179
sS'ATACTG'
p418
F-0.26578542373103714
sS'CGCATC'
p419
F0.2601231648560455
sS'ATACTA'
p420
F-0.46748624208672496
sS'ATACTC'
p421
F-0.25308364810090567
sS'CGCATG'
p422
F0.14576970366675848
sS'GCGCAA'
p423
F0.5548784148911479
sS'ATACTT'
p424
F-0.41335127610954964
sS'CGCATT'
p425
F0.04466863780183961
sS'GCGCAC'
p426
F0.39491665613600235
sS'GCTCCG'
p427
F0.9990451680667622
sS'TATTGT'
p428
F-0.6382669586304781
sS'GCTCCC'
p429
F0.5637086764501842
sS'GCTCCA'
p430
F0.8183187479892897
sS'CCTACT'
p431
F0.44405388734805806
sS'TGTACT'
p432
F-0.36295863827332975
sS'TTTAGT'
p433
F-0.5242132397210064
sS'TATTGG'
p434
F-0.23436406882537003
sS'GCTCCT'
p435
F0.9941507047506272
sS'GCGCAG'
p436
F0.6704953510875508
sS'GCTGGG'
p437
F0.8559084105551289
sS'TTTAGG'
p438
F-0.36682386921512294
sS'TGTACG'
p439
F-0.3618584616700236
sS'CCTACG'
p440
F0.3668879325357588
sS'TGTACA'
p441
F-0.5254115743726784
sS'CCTACA'
p442
F-0.08506715385334704
sS'TGTACC'
p443
F-0.3491154110990404
sS'CCTACC'
p444
F0.26267868078620293
sS'TTCGCG'
p445
F0.5248269292469842
sS'TTCGCA'
p446
F0.19230202847739458
sS'TTCGCC'
p447
F0.6961654950809576
sS'AGTATC'
p448
F-0.16787489037541878
sS'GACTAA'
p449
I0
sS'AGTATA'
p450
F-0.5727550683332776
sS'GACTAC'
p451
F0.439367210766333
sS'AGTATG'
p452
F-0.08377065151841825
sS'TTTGGA'
p453
F0.0928414265573712
sS'GACTAG'
p454
I0
sS'TTCGCT'
p455
F0.44469264975458034
sS'GTGTAT'
p456
F-0.13188758205555912
sS'GACTAT'
p457
F0.10525202447659582
sS'AGTATT'
p458
F-0.3589060942621328
sS'TTACTC'
p459
F-0.35028788433563507
sS'GGTCTT'
p460
F0.5440345857485054
sS'TTACTG'
p461
F-0.31635928753742704
sS'ACCTTG'
p462
F0.06319354519036592
sS'ACCTTC'
p463
F0.08639863907947117
sS'ACCTTA'
p464
F-0.2635674303516687
sS'TTACTT'
p465
F-0.5087015626038965
sS'ACCTTT'
p466
F-0.3525232320428046
sS'ACAGGG'
p467
F0.33639861038785845
sS'CTGGGA'
p468
F0.4904673738813339
sS'CTGGGC'
p469
F0.25774346311069074
sS'ACAGGC'
p470
F0.3688939152333574
sS'ACAGGA'
p471
F0.34402504957625457
sS'CTGGGG'
p472
F0.4406741466966775
sS'CAGGAC'
p473
F0.4698159792328147
sS'GCAGCT'
p474
F0.16981706827201343
sS'CAGGAA'
p475
F0.2309913041353558
sS'TCGCTT'
p476
F0.29417272873736566
sS'AGGACC'
p477
F0.018565835237634467
sS'AGGACA'
p478
F0.07894008508283012
sS'GCGCAT'
p479
F0.26083454008783263
sS'TTATAC'
p480
F-0.48133713747374085
sS'ACAGGT'
p481
F-0.35279263356443225
sS'CTGGGT'
p482
F0.14919514269056017
sS'TTATAG'
p483
I0
sS'CTCCGA'
p484
F0.31888020646467297
sS'TCGCTG'
p485
F0.4230038745146902
sS'GAGTTG'
p486
F0.3415996141683022
sS'GCAGCG'
p487
F1.0348594460627294
sS'AGGACT'
p488
F0.18943737821735265
sS'GCAGCA'
p489
F0.7579828429258575
sS'GCAGCC'
p490
F0.8326011715861918
sS'CAGGAT'
p491
F0.4457917627439264
sS'TGCTGA'
p492
I0
sS'CCTCAG'
p493
F0.5733889903109607
sS'CCTCAA'
p494
F0.3031205292605046
sS'CCTCAC'
p495
F0.3934748424459148
sS'TATGTT'
p496
F-0.27799435322316757
sS'ATGGGC'
p497
F0.4262019337517408
sS'TCTTTG'
p498
F-0.2332899562500199
sS'ATGGGA'
p499
F0.5537920608736575
sS'TCTTTA'
p500
F-0.49520835369157357
sS'ATGGGG'
p501
F0.48708023411959717
sS'TCTTTC'
p502
F-0.2529008257526351
sS'CCTCAT'
p503
F0.299432898865978
sS'TCTTTT'
p504
F-0.6138831453614013
sS'GCTAGC'
p505
F0.2990531964050587
sS'TATGTA'
p506
F-0.5784768119830104
sS'ATGGGT'
p507
F0.6202586132840459
sS'TATGTC'
p508
F-0.049937420296652574
sS'GAAAGA'
p509
F-0.15849535488044506
sS'ATCAAG'
p510
F0.12398870260784725
sS'CATGAT'
p511
F0.07291159859227143
sS'ATCAAC'
p512
F0.056581391367667835
sS'GAAAGG'
p513
F0.21113524851323925
sS'ATCAAA'
p514
F-0.2652586437617
sS'GGAACT'
p515
F0.5918837573863011
sS'GTCAGG'
p516
F0.2038919715702253
sS'CATGAG'
p517
F0.2787518438352075
sS'ATCAAT'
p518
F-0.21154351955918899
sS'GTCCAA'
p519
F0.14063006401434736
sS'CATGAC'
p520
F0.0790766154250579
sS'CATGAA'
p521
F-0.07288160406250427
sS'TGACCT'
p522
I0
sS'GTAGCG'
p523
F0.7850313272960834
sS'CAAGTT'
p524
F0.07936523467380857
sS'GCGGCT'
p525
F1.2391829796843068
sS'GCTTTA'
p526
F0.128878873944225
sS'GCTTTC'
p527
F0.35958869379425934
sS'TTTCTC'
p528
F-0.38367005659677605
sS'GCGGCG'
p529
F1.3146483144471632
sS'CAAGTG'
p530
F0.17805985207714506
sS'GTAGCT'
p531
F0.05825758946731101
sS'TTCTTT'
p532
F-0.538737605022719
sS'GCGGCC'
p533
F0.7417041423606586
sS'CAAGTC'
p534
F0.1389650352072093
sS'GCGGCA'
p535
F0.9188381257633547
sS'CAAGTA'
p536
F-0.32375107918020857
sS'AACGGT'
p537
F0.6504271960394046
sS'GGGGAA'
p538
F0.35086048710160805
sS'TAATCG'
p539
I0
sS'CTTGTG'
p540
F0.20637304166626277
sS'TAATCA'
p541
I0
sS'TAATCC'
p542
I0
sS'TGCGAA'
p543
F0.024465251713552568
sS'CGGCCC'
p544
F0.3668879325357588
sS'AAAATT'
p545
F-0.5810317066131852
sS'TTGATA'
p546
F-0.45575753663759166
sS'CGGCCG'
p547
F0.9376902301332791
sS'CTTGTA'
p548
F-0.12421896840067868
sS'GGTCTG'
p549
F0.27547223007112237
sS'TAATCT'
p550
I0
sS'AGTTTA'
p551
F-0.4799791302173446
sS'TGCGAC'
p552
F0.41657571672486626
sS'GGTCTC'
p553
F0.49479926447214956
sS'GGAGGC'
p554
F1.0924557053655726
sS'GGTCTA'
p555
F0.20786940635518347
sS'AAAATG'
p556
F-0.2939663235334602
sS'AAAATC'
p557
F-0.31314402946012565
sS'TCAATA'
p558
F-0.619048254590215
sS'AAAATA'
p559
F-0.7933052728666296
sS'TCGTCA'
p560
F0.17085834353789003
sS'ATCCCT'
p561
F0.38461669949619043
sS'TTCAGG'
p562
F-0.13142262125384171
sS'ATATCC'
p563
F-0.2708124150613373
sS'TCGTCG'
p564
F0.5442814248966846
sS'TTTAGC'
p565
F-0.3269424321478489
sS'TGCCAA'
p566
F-0.28312416526843553
sS'TCGGGA'
p567
F0.564089247073547
sS'GAACAA'
p568
F-0.026305641111817154
sS'ATCCCG'
p569
F0.7332289551360941
sS'GAACAC'
p570
F-0.05305481331984877
sS'ATCCCC'
p571
F0.16169429177577038
sS'GAACAG'
p572
F0.2005565107692338
sS'ATCCCA'
p573
F0.1737633341812972
sS'AACGGA'
p574
F0.44322133571055733
sS'CACCAC'
p575
F0.017983124185632225
sS'CACCAA'
p576
F-0.2394690003798577
sS'CACCAG'
p577
F0.20122620169900976
sS'AACATT'
p578
F-0.15526029199722272
sS'AACGGG'
p579
F0.7243992841521882
sS'TCCGTC'
p580
F0.7015265291808201
sS'GAGTTA'
p581
F0.13970756557349714
sS'TCCGTA'
p582
F0.04611387867602035
sS'ACCAGA'
p583
F-0.1290368860066093
sS'CACCAT'
p584
F-0.20276385792646898
sS'AACATG'
p585
F0.0767111858481615
sS'AACATA'
p586
F-0.4430199139673715
sS'AACATC'
p587
F0.047778552919086045
sS'CAGTCG'
p588
F0.640960214962022
sS'GCACGG'
p589
F0.5767277746790997
sS'GTCAGA'
p590
F0.043389418962666564
sS'GCACGA'
p591
F0.4161059552059404
sS'CAGTCC'
p592
F0.2336314003015642
sS'GCACGC'
p593
F0.4589454427494031
sS'CAGTCA'
p594
F0.11739025338088255
sS'GCACCA'
p595
F0.5982820000583455
sS'GCAAGC'
p596
F0.21131834062467925
sS'GCACGT'
p597
F0.44606917858338363
sS'CAGTCT'
p598
F0.38343448551579623
sS'TAAAGC'
p599
I0
sS'GCAAGG'
p600
F0.3838820596561094
sS'GTCAGT'
p601
F0.03367325350037637
sS'GTATAC'
p602
F-0.30325574562155394
sS'TTCCCG'
p603
F0.5927892261633121
sS'GTATAA'
p604
I0
sS'GTATAG'
p605
I0
sS'CCGGAA'
p606
F0.6744487953586977
sS'CCGGAC'
p607
F0.8213092971602446
sS'CCGGAG'
p608
F1.1624630748361426
sS'CGTCTT'
p609
F0.28298604781554965
sS'TATTTG'
p610
F-0.48667185172087557
sS'TTCCGG'
p611
F0.4082806176939838
sS'TTCCGA'
p612
F0.12233929282422584
sS'TTCCGC'
p613
F0.3260516785643537
sS'GTATAT'
p614
F-0.6791796576324529
sS'CGTCTC'
p615
F0.4554458711790494
sS'CGTCTA'
p616
F0.0744581086336951
sS'CGTCTG'
p617
F0.20852544044050914
sS'CCGGAT'
p618
F0.7158414805169228
sS'CTCTTC'
p619
F0.16630535507245175
sS'TGTTAT'
p620
F-0.8155319555479783
sS'CTCTTA'
p621
F-0.3866508128545428
sS'CTCTTG'
p622
F0.02961827809461215
sS'CCCGAT'
p623
F0.659978137008928
sS'TACGTA'
p624
F-1.1691522588025496
sS'TACGTC'
p625
F0.07429110440864042
sS'TCTGGT'
p626
F0.5100272389557841
sS'CGCGAT'
p627
F0.5459847017311653
sS'TACGTG'
p628
F-0.2888133816432796
sS'TGTTAG'
p629
I0
sS'GGTTTC'
p630
F0.14605034631426467
sS'CTCGTG'
p631
F0.332952941578469
sS'CTCTTT'
p632
F-0.28187023981333476
sS'TGTTAA'
p633
I0
sS'CGCGAA'
p634
F0.4137868021552431
sS'CGCGAC'
p635
F0.6261631800927389
sS'GATATT'
p636
F0.13806317192271642
sS'TCTGGC'
p637
F0.4685968284255839
sS'TACGTT'
p638
F-0.292012335824505
sS'CGCGAG'
p639
F1.1202155991943703
sS'AGTCGT'
p640
F0.07795605849504586
sS'TTACCT'
p641
F-0.44923555160189726
sS'CTCCAT'
p642
F0.08704723594171569
sS'TATGCC'
p643
F0.121973878850709
sS'TTACCG'
p644
F0.5570073136732696
sS'CTCCAC'
p645
F0.19360765081390596
sS'AGTCGG'
p646
F0.23308573559615375
sS'TTACCC'
p647
F-0.17582927252355798
sS'AGTCGA'
p648
F-0.011853614095071645
sS'TTACCA'
p649
F-0.16662565600179746
sS'AGTCGC'
p650
F0.19549179468845743
sS'GTACCG'
p651
F0.5516653707765327
sS'CCGACT'
p652
F0.5089946942810726
sS'GCCTAC'
p653
F0.4338347221663721
sS'GCCTAA'
p654
I0
sS'GCCTAG'
p655
I0
sS'GTGCGG'
p656
F0.7348647178303531
sS'CCGACA'
p657
F0.4133453337747603
sS'GATATC'
p658
F0.34348847866070387
sS'CCGACC'
p659
F0.6128703618688345
sS'CCGACG'
p660
F0.7755518065995695
sS'GCCTAT'
p661
F0.1642376449606097
sS'TGACGG'
p662
I0
sS'TGACGT'
p663
I0
sS'CCCGAG'
p664
F1.099505037430198
sS'CTCGTT'
p665
F0.30474002578691434
sS'CCCGAA'
p666
F0.4805036390466679
sS'CGCACA'
p667
F0.046764994962755366
sS'ATACAC'
p668
F-0.6530503974064288
sS'CGCACC'
p669
F0.32549524737753366
sS'ATACAA'
p670
F-0.5383139456433974
sS'ACTGCT'
p671
F0.6811063817812358
sS'ATACAG'
p672
F-0.3295386122206196
sS'ATTGCC'
p673
F0.3634682732776215
sS'GGGTCC'
p674
F0.14733097969898723
sS'GAGCGT'
p675
F0.9331289558372259
sS'CTCACT'
p676
F0.19567643809816404
sS'GGGTCT'
p677
F0.47946557779922083
sS'ACTGCA'
p678
F0.32077018108183836
sS'TTTGTC'
p679
F-0.16592212880592774
sS'ACTGCC'
p680
F0.5900507360499465
sS'CGCACT'
p681
F0.2375400770224038
sS'ATACAT'
p682
F-0.7069861865909297
sS'ACTGCG'
p683
F0.782170496953889
sS'CTCACC'
p684
F0.10818963749183026
sS'CTCACA'
p685
F-0.025195423803413424
sS'CTCACG'
p686
F0.005792981271225578
sS'GTGGGT'
p687
F0.3091716405859892
sS'GTGAGG'
p688
F0.48295497847245106
sS'GATTTT'
p689
F-0.18644106834092739
sS'ACAATT'
p690
F-0.4511500985579257
sS'CTTGAA'
p691
F0.28697820801388496
sS'TAGTGA'
p692
I0
sS'GTGAGA'
p693
F0.06854291903687908
sS'TCGACG'
p694
F0.4976045080030187
sS'TCGACA'
p695
F0.014073713248435484
sS'TAGAGG'
p696
I0
sS'ACAATA'
p697
F-0.5279817242094937
sS'GTGAGT'
p698
F-0.09145543676016701
sS'ACAATC'
p699
F-0.15400254153255194
sS'GATTTC'
p700
F0.20685272762158705
sS'CCAGTA'
p701
F0.17044762430744553
sS'TCGACT'
p702
F0.3816567105013004
sS'CTGGTT'
p703
F0.06499538548217965
sS'TTGAGT'
p704
F-0.18445923920905377
sS'TCAAAA'
p705
F-0.4808389231220521
sS'CGAACG'
p706
F-0.07177507036472798
sS'CGAACC'
p707
F0.05788900720050225
sS'CGAACA'
p708
F-0.13641790508577686
sS'CTGGTG'
p709
F0.3318708838084666
sS'CTGGTA'
p710
F-0.2551891723140907
sS'CTGGTC'
p711
F0.22239565955177992
sS'CGAACT'
p712
F0.051710285810485465
sS'TTGCAT'
p713
F-0.34750243066775377
sS'GACGAG'
p714
F0.9432719463775113
sS'TTGCAG'
p715
F-0.16822526916159034
sS'GAGGGA'
p716
F0.5580985643390819
sS'TTGCAC'
p717
F-0.12365629515333584
sS'TTGCAA'
p718
F-0.16447103022265028
sS'TCCATC'
p719
F0.15998272606585798
sS'TCGCAT'
p720
F0.14049155516868173
sS'GTCGTG'
p721
F0.5544734782819478
sS'GTCGTA'
p722
F0.17734994975283122
sS'GTCGTC'
p723
F0.6984839198653437
sS'CCGTTT'
p724
F0.4366038780853765
sS'GAGCAA'
p725
F0.3575978567655284
sS'TTTTTG'
p726
F-0.7488527828516743
sS'ATATCG'
p727
F-0.06213461580832598
sS'GTCGTT'
p728
F0.43016976807996665
sS'TCAGAT'
p729
F0.09918078918110487
sS'TCGCAG'
p730
F0.19946551382967923
sS'GTGCTC'
p731
F0.2760805185145563
sS'TCGCAC'
p732
F0.0037100301229331333
sS'CCGTTG'
p733
F0.6553288008917195
sS'CCGTTA'
p734
F0.329099371646359
sS'CCGTTC'
p735
F0.4356037449052187
sS'GATCGG'
p736
F0.5392513190721969
sS'AATGCT'
p737
F0.35620802185096145
sS'GGTACG'
p738
F0.004239980746231377
sS'GGTACA'
p739
F0.1814789135994376
sS'TCCAGG'
p740
F-0.06176993824730356
sS'GGTACC'
p741
F0.20328238502813728
sS'GCGGAC'
p742
F0.8707434405026659
sS'CAGGGA'
p743
F0.42562087010764343
sS'TTCAGC'
p744
F-0.11989446739630216
sS'TATTTC'
p745
F-0.3565942216776664
sS'TATTTA'
p746
F-0.9240651729623554
sS'CCCCCT'
p747
F0.1530081125906778
sS'GGTACT'
p748
F0.2832675219583893
sS'AATGCG'
p749
F0.4040297405403255
sS'AATGCC'
p750
F0.2539669655584345
sS'AATGCA'
p751
F-0.051468379780722356
sS'CCCCCC'
p752
F-0.4335397125590371
sS'CCCCCA'
p753
F0.20376165064444526
sS'TATTTT'
p754
F-0.9368479565041473
sS'CCCCCG'
p755
F0.8358912970332417
sS'CTTGAG'
p756
F0.5349037564728578
sS'ATGATG'
p757
F0.06906307674698894
sS'GAAGTA'
p758
F0.11178637586288405
sS'ATGATA'
p759
F-0.3585298162905238
sS'ATGATC'
p760
F-0.04387781172141482
sS'TGCAAC'
p761
F-0.29731996554104806
sS'TGCAAA'
p762
F-0.33333907551976255
sS'TGCAAG'
p763
F-0.028679802291346805
sS'GAAGTG'
p764
F0.5626968801656521
sS'ATGATT'
p765
F-0.25286330409017255
sS'CTTGAT'
p766
F0.3847232617545837
sS'GTGCTT'
p767
F0.27494133905925244
sS'TTGAGG'
p768
F0.20713346975560357
sS'GCCATT'
p769
F0.527327246048644
sS'TTGAGC'
p770
F0.05312686006685571
sS'TGCAAT'
p771
F-0.3946803098685756
sS'GAGAAT'
p772
F0.34198876017910196
sS'TGTCTT'
p773
F-0.4020984986488271
sS'TTCAGA'
p774
F-0.16178055017686074
sS'AGTAGC'
p775
F0.11338445017129946
sS'AAGGCC'
p776
F0.5790755369397166
sS'ATAACC'
p777
F-0.26484272945942394
sS'AAGGCA'
p778
F0.4290358392846032
sS'ATAACA'
p779
F-0.5326321144907266
sS'AAGGCG'
p780
F0.676656542577399
sS'ATAACG'
p781
F-0.2662062925321724
sS'TATGCT'
p782
F0.10086743389923042
sS'GAGGGT'
p783
F0.7348647178303532
sS'TGTCTG'
p784
F-0.4782101074784979
sS'GAGAAG'
p785
F0.6980185104719484
sS'GAGAAA'
p786
F0.2594290121892402
sS'TGTCTC'
p787
F-0.24314098846347892
sS'GAGAAC'
p788
F0.3879446428451179
sS'TGTCTA'
p789
F-0.6183888106435348
sS'TGTGGC'
p790
F0.137152054914078
sS'TGTGGA'
p791
F0.13418125533119402
sS'TGTGGG'
p792
F0.09571270863624534
sS'ATAACT'
p793
F-0.3893614764000551
sS'ACTGAC'
p794
F0.23854961315240125
sS'GGTATT'
p795
F0.20550146500679517
sS'AGGTAT'
p796
F-0.5845289684852131
sS'ACCAAG'
p797
F0.24037280769250377
sS'GAGCAT'
p798
F0.4246307860268903
sS'ACCAAA'
p799
F-0.31735881497955365
sS'ATCATC'
p800
F0.028282736085860117
sS'ACCAAC'
p801
F0.016276101423627093
sS'GGTCAC'
p802
F0.5203152069554964
sS'GATCGC'
p803
F0.35216467571505244
sS'GGTCAT'
p804
F0.2817776594958783
sS'ACCAAT'
p805
F-0.0905390142009167
sS'AGGTAG'
p806
I0
sS'AGGTAA'
p807
I0
sS'AGGTAC'
p808
F-0.34118287126245916
sS'TTTTGC'
p809
F-0.7222984456292905
sS'GCCGTC'
p810
F1.2855297672338595
sS'AATTGG'
p811
F-0.20661659833915075
sS'GTCGGA'
p812
F0.7722701340262624
sS'AATTGA'
p813
I0
sS'ATCATG'
p814
F0.01699814188719848
sS'AATTGC'
p815
F-0.46054790416014685
sS'TAGCCA'
p816
I0
sS'TGGGGT'
p817
F0.31168171981700576
sS'CGCTCG'
p818
F0.10364649776117743
sS'GATAAT'
p819
F0.1427458245641922
sS'CGCTCA'
p820
F0.18624904572935683
sS'CGCTCC'
p821
F0.6388155464954329
sS'AATTGT'
p822
F-0.6274163204893597
sS'AATCTT'
p823
F-0.1244504503577443
sS'TCTTAT'
p824
F-0.4941596804932356
sS'GTTATG'
p825
F-0.003459149406750667
sS'CGCTCT'
p826
F0.29451039454307876
sS'GATAAA'
p827
F0.0009171299387630642
sS'TCGAAG'
p828
F0.3243004887645903
sS'GATAAC'
p829
F0.21158998940710175
sS'TAGCCT'
p830
I0
sS'TGGGGC'
p831
F0.5018879951519547
sS'GATAAG'
p832
F0.3160924133817264
sS'GATCCT'
p833
F0.6865600382557981
sS'AAGAAT'
p834
F-0.03634223890362309
sS'GGGGCT'
p835
F0.8309467144161794
sS'GTTATC'
p836
F0.05705665629315992
sS'AAGAAC'
p837
F0.11641431031422149
sS'GATCCA'
p838
F0.5328217093956054
sS'AAGAAA'
p839
F-0.06269284214122013
sS'GATCCC'
p840
F0.5259064587163342
sS'AAGAAG'
p841
F0.3474095791399099
sS'GATCCG'
p842
F0.7390366469523943
sS'GCCCCA'
p843
F0.3428876561319923
sS'TATTAA'
p844
I0
sS'CAAGGG'
p845
F0.5080807505384846
sS'CAAGGC'
p846
F0.5181556078664079
sS'GGTTCT'
p847
F0.3192673834276182
sS'CAAGGA'
p848
F0.3553675095059476
sS'GGTTCA'
p849
F0.2856212347886429
sS'GGTTCC'
p850
F0.37685132946393746
sS'AAGGCT'
p851
F0.6759549237722444
sS'TGCATT'
p852
F-0.40761886724244084
sS'GGTTCG'
p853
F0.41637329561567704
sS'TAGGCA'
p854
I0
sS'ATTATA'
p855
F-0.6543013665341793
sS'ATTATC'
p856
F-0.2985590376565965
sS'TAGAAT'
p857
I0
sS'GATAGT'
p858
F0.1717115017456209
sS'ATTATG'
p859
F-0.25180818615066325
sS'AGTCTT'
p860
F-0.06046170545290795
sS'TCCCAA'
p861
F-0.19723990574348496
sS'TAGAAA'
p862
I0
sS'TAGAAC'
p863
I0
sS'ATTATT'
p864
F-0.5383563945225147
sS'TAGAAG'
p865
I0
sS'AGTCTA'
p866
F-0.36011079540050356
sS'AGTCTC'
p867
F0.11862840882328801
sS'AGTCTG'
p868
F0.05806769244552577
sS'TAACTC'
p869
I0
sS'TAACTA'
p870
I0
sS'TAACTG'
p871
I0
sS'ATCTAT'
p872
F-0.35636244784733995
sS'GCCCCG'
p873
F0.6856466951601715
sS'TAACTT'
p874
I0
sS'ATCTAG'
p875
I0
sS'ATCTAC'
p876
F0.027512944795557905
sS'ATCTAA'
p877
I0
sS'GGTCAG'
p878
F0.5415782404349778
sS'CCATGT'
p879
F-0.22992055004153006
sS'GCCCCC'
p880
F0.16012785371362565
sS'TGGAGG'
p881
F0.2419491959274588
sS'TGGAGA'
p882
F0.07647691288207153
sS'GGTCAA'
p883
F0.3928236666301585
sS'CCATGC'
p884
F-0.2113394497855682
sS'TCCAGA'
p885
F0.03289109303339405
sS'CCATGA'
p886
I0
sS'CCATGG'
p887
F0.38230829140325256
sS'TGGAGT'
p888
F0.16012785371362567
sS'TCAGTA'
p889
F-0.3736307815629666
sS'TCAGTC'
p890
F-0.020459002638854695
sS'CTCTCT'
p891
F-0.1024943103415927
sS'GGGGAT'
p892
F0.5957699448833191
sS'TCAGTG'
p893
F0.09196847253098574
sS'CGATAT'
p894
F-0.33524059104508974
sS'CTCTCG'
p895
F0.2459519383811328
sS'GGGGAC'
p896
F0.6036770319450517
sS'CTCTCC'
p897
F0.37347281306235075
sS'TCAGTT'
p898
F-0.13557706361904567
sS'CTCTCA'
p899
F0.02961827809461215
sS'CGATAG'
p900
I0
sS'CGATAA'
p901
I0
sS'ATGCTG'
p902
F0.08621084765835799
sS'CGATAC'
p903
F0.10628659392738588
sS'TTCACT'
p904
F0.01546720111665385
sS'GTGTTT'
p905
F-0.211936813207895
sS'GCTACT'
p906
F0.4947853777877633
sS'GTGGTT'
p907
F0.3665127320960909
sS'GTGTTC'
p908
F0.09732477796089849
sS'GTGTTA'
p909
F-0.3149877746121378
sS'GTGTTG'
p910
F0.08434134256579072
sS'CGTGCC'
p911
F0.7491051569449634
sS'GTGGTA'
p912
F0.0821867204079024
sS'GCTACA'
p913
F0.03173030038487504
sS'GTGGTC'
p914
F0.27150443948917485
sS'GCTACC'
p915
F0.40101925512285624
sS'GTGGTG'
p916
F0.5095554361044904
sS'GCTACG'
p917
F0.3480341264082883
sS'CGTGCA'
p918
F0.5104934375099548
sS'TTTCGT'
p919
F-0.4080932710583782
sS'TGCCCT'
p920
F0.385530042591817
sS'AGCGTT'
p921
F0.26964268641039846
sS'CGTGCG'
p922
F0.657933707293139
sS'CACGGA'
p923
F0.5791913642458848
sS'TGCCCA'
p924
F0.09198879372893544
sS'TGCCCG'
p925
F0.7026800344589519
sS'ACAGTG'
p926
F0.1618896998699123
sS'AGCGTA'
p927
F0.2999411429051456
sS'AGCGTC'
p928
F0.38740959968036054
sS'GTACGT'
p929
F-0.7844884386988248
sS'AGCGTG'
p930
F0.3081822721979316
sS'GGCCCC'
p931
F0.5265887754032706
sS'GGCCCA'
p932
F0.2501903252202448
sS'CACGTG'
p933
F0.05269649081380677
sS'GGCCCG'
p934
F0.5369050438792469
sS'CACGTA'
p935
F-0.7451422251267974
sS'CACGTC'
p936
F0.2304440335221341
sS'ACGTGC'
p937
F-0.4028301503110221
sS'ACGTGA'
p938
I0
sS'ACGTGG'
p939
F0.06946206114060287
sS'AAATGG'
p940
F0.07325665894480898
sS'CACGTT'
p941
F-0.1393357038882108
sS'GGGGCC'
p942
F0.8127514935249791
sS'TCTTAA'
p943
I0
sS'GGCCCT'
p944
F0.7181232431137292
sS'GGGACA'
p945
F0.5674529609746406
sS'GGTATA'
p946
F-0.15481545483664416
sS'GGGACC'
p947
F0.33759855643377124
sS'TCGTGG'
p948
F0.5761475548440946
sS'ACGTGT'
p949
F-0.4112633178478849
sS'TCTTAG'
p950
I0
sS'GCTTCC'
p951
F0.5541155577093996
sS'AGAGAG'
p952
F-0.022063276371493006
sS'AGAGAA'
p953
F-0.06139858766298208
sS'AGAGAC'
p954
F0.07639016350648875
sS'TCGTGA'
p955
I0
sS'GTCTTT'
p956
F-0.20304547113112953
sS'TCTATC'
p957
F-0.17743327094841427
sS'TCTATG'
p958
F-0.049744562063120924
sS'AGAGAT'
p959
F0.09925597620038829
sS'TTCACA'
p960
F-0.22115608613316243
sS'GTCTTG'
p961
F0.10602466643283769
sS'TCTATT'
p962
F-0.2615009975145527
sS'GTCTTC'
p963
F0.1757050062185851
sS'GTCTTA'
p964
F-0.2756486485758448
sS'GCAGAG'
p965
F0.6441992922896526
sS'GAAGGC'
p966
F0.6408221683995428
sS'GCTCAC'
p967
F0.32034509911749043
sS'GCAGAC'
p968
F0.5315711759222106
sS'GCAGAA'
p969
F0.3582877607738413
sS'GCTCAG'
p970
F0.7504986023115144
sS'ATGCGT'
p971
F0.15395842912282717
sS'TTGCTG'
p972
F-0.07528462323357082
sS'CTTGAC'
p973
F0.4914183057083261
sS'TTGCTA'
p974
F-0.31814629385696747
sS'TTGCTC'
p975
F-0.04526509853537833
sS'GCAGAT'
p976
F0.5891242720769068
sS'GCTCAT'
p977
F0.3581581012768629
sS'GTTTGC'
p978
F-0.2048447997841385
sS'TTGCTT'
p979
F-0.13522753531174098
sS'ATGCGG'
p980
F0.33921650593790037
sS'GAGAGG'
p981
F0.6087077630827352
sS'TAGCCG'
p982
I0
sS'ATGCGC'
p983
F0.23984607083969453
sS'ATGCGA'
p984
F-0.01588552594044762
sS'TGTAAG'
p985
F-0.28739559160211037
sS'GGCTAG'
p986
I0
sS'TGTAAC'
p987
F-0.3605097797941174
sS'GGCTAC'
p988
F0.6201451464037393
sS'GACTGT'
p989
F0.06121303182601407
sS'GGCTAA'
p990
I0
sS'ACTGTA'
p991
F-0.0969375547819708
sS'TTGGTA'
p992
F-0.30836294115064095
sS'ACTGTC'
p993
F0.41121446798998523
sS'TTGGTC'
p994
F-0.024024196631480792
sS'TTCGAC'
p995
F0.5784830477865621
sS'ACTGTG'
p996
F0.4180404549831401
sS'AATCAA'
p997
F-0.5020814994563764
sS'GACTGC'
p998
F0.38461669949619043
sS'GGCTAT'
p999
F0.3874500914506479
sS'GACTGA'
p1000
I0
sS'GACTGG'
p1001
F0.5600125308902204
sS'TGTAAT'
p1002
F-0.7171566844005693
sS'TGTGGT'
p1003
F0.024781217156302337
sS'TTGGTT'
p1004
F-0.18298229085080506
sS'ACTGTT'
p1005
F0.23225935533148387
sS'GTTTCT'
p1006
F-0.14994269328937726
sS'ATAATT'
p1007
F-0.7609164491827458
sS'CCTTTT'
p1008
F-0.283273594217415
sS'GTTTCG'
p1009
F0.1068947887598684
sS'GTTTCC'
p1010
F-0.008815021475146997
sS'GTTTCA'
p1011
F-0.19626871236331656
sS'ATAATG'
p1012
F-0.27699601953890235
sS'CCTTTA'
p1013
F-0.11023332218390361
sS'CCTTTC'
p1014
F0.21653109536502219
sS'ATAATC'
p1015
F-0.38389713363151845
sS'ATAATA'
p1016
F-0.8857917619892677
sS'CCTTTG'
p1017
F0.14139859505196722
sS'ACAGAA'
p1018
F-0.08766749428516224
sS'ACAGAC'
p1019
F0.1354480364390881
sS'GCCCCT'
p1020
F0.6527539869354342
sS'ACAGAG'
p1021
F0.20187217852374803
sS'TTATCT'
p1022
F-0.3544898519251819
sS'CTGGAC'
p1023
F0.36849345925117716
sS'CTGGAA'
p1024
F0.16381318379448406
sS'CTGGAG'
p1025
F0.5423600974282934
sS'ACAGAT'
p1026
F0.1060072931478745
sS'GTGAAG'
p1027
F0.5427354113538276
sS'TGGGGA'
p1028
F0.5861361086215898
sS'CCTTGC'
p1029
F0.04899001158448216
sS'TTATCA'
p1030
F-0.39007401877794684
sS'CTGGAT'
p1031
F0.27076397310320177
sS'TTATCC'
p1032
F-0.24088654231663295
sS'CCAATG'
p1033
F0.30757393131977684
sS'AAACCG'
p1034
F0.2440123564912323
sS'AAACCA'
p1035
F-0.2858905037602662
sS'CCAATC'
p1036
F0.11033620859327971
sS'AAACCC'
p1037
F-0.13684045864935307
sS'CCAATA'
p1038
F-0.3300839996769169
sS'TGTCGG'
p1039
F0.1685202787689253
sS'GAGATC'
p1040
F0.6307053547712983
sS'AACGAG'
p1041
F0.5072015307110129
sS'GAGATA'
p1042
F0.1864947568996471
sS'AACGAA'
p1043
F-0.06509669589180388
sS'GAGATG'
p1044
F0.5773657729834127
sS'AACGAC'
p1045
F0.5155933911018076
sS'AAACCT'
p1046
F-0.02951282586608765
sS'CCAATT'
p1047
F-0.08129720487897588
sS'ATTTGC'
p1048
F-0.5345022695782904
sS'GTCGAT'
p1049
F0.5966266420110258
sS'ATTTGG'
p1050
F-0.35690565552529213
sS'AACGAT'
p1051
F0.2575432812763545
sS'TGTCGT'
p1052
F0.004239980746231377
sS'CCCTAC'
p1053
F-0.013323309175847202
sS'GAGATT'
p1054
F0.3923548905280907
sS'CCCTAA'
p1055
I0
sS'TACAAC'
p1056
F0.09676940185279365
sS'CATTAT'
p1057
F-0.5612786498294469
sS'CTACAC'
p1058
F-0.414168308491292
sS'TGGATT'
p1059
F-0.2490807854737287
sS'ATCACA'
p1060
F-0.16570029413108675
sS'ATCACC'
p1061
F0.2717674853866862
sS'CATGCT'
p1062
F0.34913578561344144
sS'TGACAC'
p1063
I0
sS'ATCACG'
p1064
F0.14608693851059618
sS'TGGATA'
p1065
F-0.37679180676974133
sS'CATTAG'
p1066
I0
sS'CATTAA'
p1067
I0
sS'CATTAC'
p1068
F-0.2024770410707703
sS'CATGCA'
p1069
F-0.2023444523101913
sS'TGACAT'
p1070
I0
sS'CATGCC'
p1071
F0.32829288212600954
sS'ATCACT'
p1072
F0.06987456186678928
sS'CATGCG'
p1073
F0.1857171479508026
sS'GTAGAA'
p1074
F-0.043053354302371616
sS'GTAGAC'
p1075
F0.15681217616971013
sS'GTAGAG'
p1076
F0.36944261332517436
sS'ACAACA'
p1077
F-0.3133494868683001
sS'ACAACC'
p1078
F0.003245792257345701
sS'GATTGC'
p1079
F0.09556486370480798
sS'ACAACG'
p1080
F0.115017863831632
sS'ACTAAG'
p1081
F0.08585456528803123
sS'GTAGAT'
p1082
F0.15550765607688044
sS'TGCTAC'
p1083
F-0.1993336335634961
sS'GGGTAC'
p1084
F0.5824877328751137
sS'TGATGC'
p1085
I0
sS'GATTGT'
p1086
F-0.10509368253149258
sS'TTCAGT'
p1087
F-0.22070201645685913
sS'ACAACT'
p1088
F0.06461353922410554
sS'GGGTAA'
p1089
I0
sS'TTGCCT'
p1090
F0.25294458022892197
sS'TAATAG'
p1091
I0
sS'AGTCCG'
p1092
F0.5196557630088161
sS'TAATAC'
p1093
I0
sS'GTCCGA'
p1094
F0.5914425755280401
sS'TAATAA'
p1095
I0
sS'GTCCGC'
p1096
F0.5138768098871329
sS'TGTTTA'
p1097
F-0.854225234596496
sS'TCAACA'
p1098
F-0.22689322476155036
sS'CACATC'
p1099
F-0.16388729359061252
sS'GTCCGT'
p1100
F0.5235956933847643
sS'TAATAT'
p1101
I0
sS'ATTCGC'
p1102
F0.05411953360053351
sS'TTCTCC'
p1103
F0.13306208620290186
sS'ATTCGA'
p1104
F-0.2565936630198085
sS'TAACGA'
p1105
I0
sS'ATTCGG'
p1106
F0.019525602439084234
sS'TTCTCG'
p1107
F0.15240028256577154
sS'GAGCTA'
p1108
F0.45922764850296943
sS'TCGTAC'
p1109
F0.16414447870863727
sS'TACCTT'
p1110
F-0.13027453706720565
sS'TCGTAA'
p1111
I0
sS'TCGTAG'
p1112
I0
sS'GAACCT'
p1113
F0.20512252797148064
sS'ATCCAA'
p1114
F-0.1498621166822188
sS'ATCCAC'
p1115
F-0.03840427439030081
sS'TGAACC'
p1116
I0
sS'TTCTCT'
p1117
F-0.15605611527562482
sS'ATCCAG'
p1118
F0.20251245665798584
sS'GAACCC'
p1119
F0.0539587135720699
sS'TTATAT'
p1120
F-0.9185046942421823
sS'GAACCA'
p1121
F0.1808124525734767
sS'GAACCG'
p1122
F0.5530211298855806
sS'TACCTC'
p1123
F0.2768487588999256
sS'TCGTAT'
p1124
F-0.09844179745434567
sS'ACCATC'
p1125
F0.24010348774396542
sS'ACCATA'
p1126
F-0.38503379413842337
sS'ACCATG'
p1127
F0.05240526231544801
sS'ATGTTG'
p1128
F-0.11365747512754
sS'AGCTCT'
p1129
F0.18000619339657126
sS'TGTCCT'
p1130
F0.07415303590266006
sS'AGTGGT'
p1131
F0.48012925279333774
sS'TGATGT'
p1132
I0
sS'ATGTTT'
p1133
F-0.40686412397241145
sS'ACCATT'
p1134
F-0.02236232558267676
sS'AGCTCG'
p1135
F0.44866975211390897
sS'AGTGGC'
p1136
F0.3266999485159044
sS'AGCTCC'
p1137
F0.3213704499844544
sS'AGCTCA'
p1138
F-0.04477333469664541
sS'TCCATG'
p1139
F0.13815105354173482
sS'CAGTAA'
p1140
I0
sS'CAGTAC'
p1141
F0.19984480245747463
sS'CAGTAG'
p1142
I0
sS'TTAATA'
p1143
F-0.8891580268804469
sS'CAGTAT'
p1144
F0.157776004322335
sS'AAAGTA'
p1145
F-0.337178628819641
sS'AAAGTC'
p1146
F0.07554520427490931
sS'AAAGTG'
p1147
F0.07874595922387632
sS'GATCTA'
p1148
F0.11264334384582123
sS'GATCTC'
p1149
F0.5032333876354791
sS'TGTCCA'
p1150
F-0.044966590671312125
sS'GATCTG'
p1151
F0.2919489129604272
sS'TCCCTT'
p1152
F-0.138413658451738
sS'CCGGCC'
p1153
F0.9952768625860703
sS'ATTAGG'
p1154
F-0.2746226748364577
sS'AAAGTT'
p1155
F-0.06314508257125433
sS'ACTCTC'
p1156
F0.025841780542355808
sS'ATTAGC'
p1157
F-0.3289586589906364
sS'TCCCTC'
p1158
F0.016170152682670136
sS'TGTCCG'
p1159
F0.19495263325123532
sS'TCCCTA'
p1160
F-0.31814629385696747
sS'TTAATG'
p1161
F-0.4685047989711202
sS'TCCCTG'
p1162
F-0.1072688432201646
sS'GATCTT'
p1163
F0.3332933534929123
sS'CACAAT'
p1164
F-0.3269424321478489
sS'AAGTGC'
p1165
F-0.10591194840126102
sS'TGTTCT'
p1166
F-0.519374981835185
sS'AAGTGG'
p1167
F0.16505974665941883
sS'TGATTG'
p1168
I0
sS'TGCGCA'
p1169
F0.17021014269830004
sS'TCTGAT'
p1170
F0.21689745644099162
sS'TGTATT'
p1171
F-0.6440095464829129
sS'CGAGGT'
p1172
F0.4338347221663721
sS'TGTTCA'
p1173
F-0.43727675021280277
sS'CACAAG'
p1174
F0.01407371324843539
sS'TGTTCC'
p1175
F-0.3616503024429688
sS'AAGTGT'
p1176
F-0.25214487346097825
sS'CACAAC'
p1177
F-0.16116341467410356
sS'TGTTCG'
p1178
F-0.03594099622825978
sS'TCTGAA'
p1179
F0.16437347659525237
sS'TCTGAC'
p1180
F0.2953596507166595
sS'TCTGAG'
p1181
F0.4843749584811736
sS'CGCGCC'
p1182
F0.819185603530389
sS'CGCGCA'
p1183
F0.6398892045994964
sS'GGTAAA'
p1184
F0.08061061644117604
sS'CGCGCG'
p1185
F0.6494345225057269
sS'CTCCCT'
p1186
F0.29284632614054507
sS'AGCGGG'
p1187
F0.6869809342492362
sS'AGCGGA'
p1188
F0.48036704697700816
sS'ACCTCT'
p1189
F0.0843413425657908
sS'GGTAAG'
p1190
F-0.2626464817659521
sS'CGCGCT'
p1191
F0.9866766908241527
sS'ACCTCC'
p1192
F0.30101215326767117
sS'ACCTCA'
p1193
F-0.06581418239549072
sS'ACCTCG'
p1194
F0.1971368515110965
sS'CTCCCC'
p1195
F0.31790147184488515
sS'GCCTCT'
p1196
F0.4414171656664585
sS'TAAGCC'
p1197
I0
sS'CGGGAG'
p1198
F0.6150656208744643
sS'CCCATG'
p1199
F0.18395724894977214
sS'CGGGAA'
p1200
F0.4744209178042475
sS'CCCATA'
p1201
F-0.18565441935822163
sS'CGGGAC'
p1202
F0.7243992841521882
sS'CCCATC'
p1203
F0.3167213230700286
sS'TTGTTG'
p1204
F-0.27702093567504626
sS'CCTGCT'
p1205
F0.7869154711706349
sS'CCGAAT'
p1206
F0.2463140013299089
sS'CCCATT'
p1207
F0.08710823664157066
sS'CGGGAT'
p1208
F0.5316981811817509
sS'GCCTCG'
p1209
F0.4180404549831401
sS'GCCTCA'
p1210
F0.3092463643442437
sS'TAAGCT'
p1211
I0
sS'GCCTCC'
p1212
F0.7678649779332786
sS'CCGAAC'
p1213
F0.2601231648560454
sS'CCTGCG'
p1214
F0.4776379286762452
sS'CCGAAA'
p1215
F0.20162752113175939
sS'CCGAAG'
p1216
F0.5637627975147321
sS'CCTGCC'
p1217
F0.3494332548756228
sS'CCTGCA'
p1218
F-0.062432089113242224
sS'GTACTG'
p1219
F-0.16386046375914026
sS'CAAGGT'
p1220
F0.4194314124397261
sS'CCATTC'
p1221
F0.15451242473520047
sS'CCATTA'
p1222
F-0.22705416857002414
sS'CCATTG'
p1223
F0.25609684698875107
sS'TATAAC'
p1224
F-0.45381566853334854
sS'GATTTG'
p1225
F0.0895826488615884
sS'GTACTC'
p1226
F-0.0004283287046608567
sS'GTCGAA'
p1227
F0.5053994763333327
sS'CCATTT'
p1228
F-0.1953304270037167
sS'TCAGCG'
p1229
F0.5173307368076003
sS'TCTACC'
p1230
F0.0991651188828152
sS'TCTACG'
p1231
F0.07441574050704305
sS'ACTTTC'
p1232
F-0.05708665954984969
sS'CGCAAC'
p1233
F0.2531574175190937
sS'TGCTTA'
p1234
F-0.5614740579235886
sS'CGCAAA'
p1235
F0.02263278282649748
sS'ATACCG'
p1236
F0.40255200065998853
sS'CGCAAG'
p1237
F0.5598799421296414
sS'ATACCA'
p1238
F-0.13956819558643077
sS'ATACCC'
p1239
F-0.2651352821696469
sS'TCTACT'
p1240
F-0.009668635587066952
sS'CCGAGT'
p1241
F0.440490706574878
sS'ATACCT'
p1242
F-0.365874029498246
sS'GATAGG'
p1243
F0.26408364114170974
sS'CGCAAT'
p1244
F0.027350939951040685
sS'TAGTAA'
p1245
I0
sS'TGGGTG'
p1246
F0.27948635624144286
sS'TAGTAC'
p1247
I0
sS'CTCAAG'
p1248
F0.4033340055496494
sS'GTTTTG'
p1249
F-0.19153826186138398
sS'CTCAAA'
p1250
F-0.062265676818111695
sS'TAGTAG'
p1251
I0
sS'CTCAAC'
p1252
F0.25001325088263293
sS'GTGTGC'
p1253
F-0.20648976925687296
sS'GTGTGA'
p1254
I0
sS'GTGTGG'
p1255
F0.14449665382710836
sS'TAACGG'
p1256
I0
sS'TTGCGT'
p1257
F0.02598642483408541
sS'CTCAAT'
p1258
F-0.06250623876032403
sS'TAGTAT'
p1259
I0
sS'GTTCTC'
p1260
F0.17384157839048164
sS'GTGTGT'
p1261
F-0.5246675087174995
sS'ATCTTT'
p1262
F-0.4093626825084506
sS'GTTGGG'
p1263
F0.6719849296580297
sS'GTTGGA'
p1264
F0.5909163328096363
sS'GTTGGC'
p1265
F0.46921887839858656
sS'CCTTGG'
p1266
F0.17520857505547807
sS'CCTTGA'
p1267
I0
sS'GGGAAA'
p1268
F0.43543080805656265
sS'AGGATT'
p1269
F0.11932499938810524
sS'GGACGT'
p1270
F0.6879066888910702
sS'GTTGGT'
p1271
F0.5483894985948987
sS'ATCTTG'
p1272
F-0.08302435381513754
sS'GAGAGT'
p1273
F0.4198240077235573
sS'ATCTTA'
p1274
F-0.4343286219165783
sS'ATCTTC'
p1275
F0.000734199780671841
sS'AGGATC'
p1276
F0.23695985718739862
sS'AGGATA'
p1277
F-0.18471944702314858
sS'AGGATG'
p1278
F0.341211955049549
sS'GACATG'
p1279
F0.3931090657513106
sS'GACATC'
p1280
F0.34692425639251334
sS'GACATA'
p1281
F-0.006877261608228675
sS'TCGGCG'
p1282
F0.9598045444238514
sS'GAATAT'
p1283
F-0.15721417829127848
sS'GGTGCA'
p1284
F0.6602889707417301
sS'TCGGCC'
p1285
F0.3994171573626788
sS'ATCAGA'
p1286
F-0.1702754436152081
sS'TTGCGA'
p1287
F-0.16663735338195845
sS'GACATT'
p1288
F0.2507070349562754
sS'TTGCGG'
p1289
F0.008271304418986412
sS'GAATAG'
p1290
I0
sS'TCGGCT'
p1291
F0.7005193609380248
sS'CATAGA'
p1292
F-0.31820232101074497
sS'GAATAC'
p1293
F0.12745400811828958
sS'GAATAA'
p1294
I0
sS'TGCCTG'
p1295
F-0.3472810071810106
sS'CACCGC'
p1296
F0.495008327930248
sS'TGCAGA'
p1297
F-0.25365546448621673
sS'TTAATT'
p1298
F-0.922989808865905
sS'GGACGA'
p1299
F0.40069449499496235
sS'TGAGGT'
p1300
I0
sS'TTTCTA'
p1301
F-0.6486829895760023
sS'TTATAA'
p1302
I0
sS'GAAATG'
p1303
F0.07560994684912757
sS'AATGAT'
p1304
F0.08771893749874723
sS'GAAATA'
p1305
F-0.35596050938097934
sS'GAAATC'
p1306
F0.11174741177685205
sS'GAAATT'
p1307
F-0.21090348406526685
sS'AATGAA'
p1308
F-0.12672560174345662
sS'AATGAC'
p1309
F0.14873532847936624
sS'AATGAG'
p1310
F0.16791657949229896
sS'TCAGCA'
p1311
F0.21047681314133074
sS'TACTAG'
p1312
I0
sS'CTTGGA'
p1313
F0.6361613320802533
sS'CTTGGC'
p1314
F0.6209859878704704
sS'GTATTG'
p1315
F-0.2884671335964843
sS'GTCCTT'
p1316
F0.17648920844020066
sS'CTTGGG'
p1317
F0.5636807932694161
sS'AGCCCT'
p1318
F0.5332193543022837
sS'GGGAAT'
p1319
F0.39523967175662267
sS'TTGAAT'
p1320
F-0.22508239845176442
sS'GTCCTA'
p1321
F-0.04981739971224819
sS'GTCCTC'
p1322
F0.37461383227237466
sS'TGCACG'
p1323
F0.1530081125906778
sS'CTTGGT'
p1324
F0.39007207488181245
sS'GTCCTG'
p1325
F0.18125135557384717
sS'TGCACC'
p1326
F-0.07723306208097823
sS'TTGAAA'
p1327
F-0.19153826186138398
sS'AGCCCG'
p1328
F0.9441243401386891
sS'AGCCCA'
p1329
F0.33470324916435756
sS'AGCCCC'
p1330
F0.45007192103705757
sS'TTAACT'
p1331
F-0.3866841316993099
sS'ATAAAT'
p1332
F-0.6959028973236967
sS'TGGTCG'
p1333
F0.09514731297376514
sS'TGGTCA'
p1334
F-0.11861225375667431
sS'TGGTCC'
p1335
F0.010588848229564223
sS'ACGATT'
p1336
F0.0016170406170893453
sS'GAGACT'
p1337
F0.4480373981852754
sS'GATTCA'
p1338
F0.06695325770938039
sS'GAGGAG'
p1339
F0.9860840669224568
sS'ATAAAG'
p1340
F-0.32091235372436655
sS'ATAAAA'
p1341
F-0.7569212989315712
sS'TCAGCC'
p1342
F0.5339074365406009
sS'ATAAAC'
p1343
F-0.492103617589053
sS'GAGACG'
p1344
F0.63093436194657
sS'ACGATG'
p1345
F0.34680137078762574
sS'CTACAG'
p1346
F-0.10712008675976066
sS'GAGACC'
p1347
F0.501087030263263
sS'ACGATC'
p1348
F0.11280364837038868
sS'GAGACA'
p1349
F0.2509169396299474
sS'ACGATA'
p1350
F-0.0501584240579244
sS'GGTTAC'
p1351
F0.35870888699672787
sS'ATGTGT'
p1352
F-0.43454560642366663
sS'GGTTAA'
p1353
I0
sS'ACCACT'
p1354
F0.2622733032067673
sS'GCACTT'
p1355
F0.5993154198961206
sS'CTTCCT'
p1356
F0.38840537252187707
sS'TAAACT'
p1357
I0
sS'CTCAGT'
p1358
F-0.035921761359602726
sS'TCCGCT'
p1359
F0.5574789884216732
sS'ACCACG'
p1360
F0.1690774237868413
sS'ATGTGG'
p1361
F0.03941445390983443
sS'ACCACC'
p1362
F0.40921963315581145
sS'GAGGAA'
p1363
F0.6665500704330588
sS'ACCACA'
p1364
F-0.15336300474366513
sS'GGTTAT'
p1365
F0.10753054113856737
sS'TCCGCC'
p1366
F1.3801265384912238
sS'GACGTG'
p1367
F0.5115707273398159
sS'TCCGCG'
p1368
F0.7648279412077965
sS'AACGTC'
p1369
F0.2634666359135771
sS'AACGTA'
p1370
F-0.5412934900481764
sS'AACGTG'
p1371
F0.1920428564926765
sS'CGTGAC'
p1372
F0.666008938392409
sS'AGTGTG'
p1373
F0.12565568471272673
sS'TCTTCG'
p1374
F0.3910611312917614
sS'AGTGTA'
p1375
F-0.2456881774773588
sS'TCTTCA'
p1376
F0.08536811533977781
sS'AGTGTC'
p1377
F0.08933903272130048
sS'TCTTCC'
p1378
F0.18243189877515192
sS'CGTGAT'
p1379
F0.5462718114713593
sS'TAAGTC'
p1380
I0
sS'AACGTT'
p1381
F-0.00016186311787637543
sS'CCGTGA'
p1382
I0
sS'TCTTCT'
p1383
F0.1326333057455163
sS'AGTGTT'
p1384
F0.005203307749672994
sS'GTGCGC'
p1385
F0.2679626282923768
sS'TTGGCA'
p1386
F0.12593683876355624
sS'AAAGGT'
p1387
F0.20116731031890678
sS'TTGGCC'
p1388
F0.4456049407177962
sS'GAGTAG'
p1389
I0
sS'TTAACG'
p1390
F-0.23060049571772018
sS'TTGGCG'
p1391
F0.4907395735028446
sS'GACTTC'
p1392
F0.3916370423719172
sS'TCGAGT'
p1393
F0.33212582627654685
sS'GACTTA'
p1394
F-0.12830643546959872
sS'GACTTG'
p1395
F0.2917147061985463
sS'AAAGGG'
p1396
F0.2282988171053184
sS'AAAGGA'
p1397
F0.22381010819453762
sS'TTGGCT'
p1398
F0.430284171509149
sS'AAAGGC'
p1399
F0.3143044549819287
sS'GAGTAC'
p1400
F0.477763601680639
sS'GTATGG'
p1401
F-0.135277192234685
sS'GACTTT'
p1402
F0.08275868740997899
sS'TAAACC'
p1403
I0
sS'CAAGAA'
p1404
F0.04282268823024852
sS'GACGTT'
p1405
F0.5335655436246431
sS'CAAGAC'
p1406
F0.22226351456919846
sS'GATTCG'
p1407
F0.3511457171871794
sS'CAAGAG'
p1408
F0.3339857626606707
sS'TTCTTG'
p1409
F-0.11804641759971128
sS'TTCTTC'
p1410
F-0.0736728925191288
sS'TTCTTA'
p1411
F-0.6209266533918024
sS'CAAGAT'
p1412
F0.1726387039061283
sS'AGGGCT'
p1413
F0.5261489834852793
sS'TACGGG'
p1414
F0.48708023411959717
sS'TACGGA'
p1415
F0.568631764374397
sS'TACGGC'
p1416
F0.4918266691440587
sS'CTCAGA'
p1417
F-0.02452120897732103
sS'TAGAGT'
p1418
I0
sS'TACGGT'
p1419
F0.6935558652140164
sS'AGGGCG'
p1420
F0.49568708995729693
sS'AGGGCA'
p1421
F0.4401518441900645
sS'AGGGCC'
p1422
F0.21944185492960755
sS'TCGAGA'
p1423
F0.16064425624997844
sS'CTGTGC'
p1424
F-0.41634284337715977
sS'TAGAGA'
p1425
I0
sS'GGCGAG'
p1426
F0.9241355794473589
sS'CCGTGT'
p1427
F0.1530081125906778
sS'GTGCTG'
p1428
F0.381128371650369
sS'GTGCTA'
p1429
F-0.07480358399935529
sS'ATCTGT'
p1430
F-0.3137288698193802
sS'CGAATT'
p1431
F-0.3513640578269835
sS'GCTCGT'
p1432
F0.8382262192268836
sS'ATCTGA'
p1433
I0
sS'CGAATC'
p1434
F-0.08713655775937747
sS'ATCTGC'
p1435
F-0.018963576528539913
sS'CGAATA'
p1436
F-0.36987063268965975
sS'CGAATG'
p1437
F0.2677564595337444
sS'ATCTGG'
p1438
F0.0715536838466591
sS'ATCATA'
p1439
F-0.3985264964449523
sS'GATAGC'
p1440
F0.2693874442743985
sS'AAGCAG'
p1441
F0.26092512189687994
sS'GATAGA'
p1442
F0.14662959085596763
sS'AAGCAA'
p1443
F-0.0942260506892248
sS'CAAACT'
p1444
F-0.2613566416940768
sS'AAGCAC'
p1445
F-0.07804863881250239
sS'TTTACC'
p1446
F-0.5016527854871445
sS'CATTTC'
p1447
F-0.2537953564126649
sS'CTAGGT'
p1448
F-0.02591243648386768
sS'CATTTA'
p1449
F-0.643758608101621
sS'CATTTG'
p1450
F-0.29891370854760535
sS'GTTATA'
p1451
F-0.25440286758975345
sS'CAAACA'
p1452
F-0.5272343107536962
sS'AAGCAT'
p1453
F-0.04481171228377027
sS'CAAACC'
p1454
F-0.18616583543463391
sS'CTCGGG'
p1455
F0.9093622338794771
sS'ATCATT'
p1456
F-0.21119434255477046
sS'CAAACG'
p1457
F-0.2004099525329916
sS'CTAGGG'
p1458
F0.26334734062868925
sS'GTTATT'
p1459
F-0.14097453441868324
sS'TGGAGC'
p1460
F0.16276794987983403
sS'CTAGGC'
p1461
F0.1981370366458209
sS'CATTTT'
p1462
F-0.6331120674642412
sS'CTAGGA'
p1463
F0.14428454418582082
sS'AAGTTT'
p1464
F-0.17613037423404365
sS'TACAGT'
p1465
F-0.03241625108486953
sS'CTCGAA'
p1466
F0.4266163651611904
sS'CTAACG'
p1467
F-0.22525299346023592
sS'CTAAGG'
p1468
F0.15050207862090467
sS'CTAAGA'
p1469
F-0.2768592807415778
sS'CTAAGC'
p1470
F-0.04096036479652783
sS'TACAGG'
p1471
F-0.1086158362102845
sS'AAGTTG'
p1472
F0.036187266204557256
sS'AAGTTA'
p1473
F-0.35438982238174843
sS'TACAGC'
p1474
F-0.03481222500958559
sS'AAGTTC'
p1475
F0.11072820652755927
sS'TACAGA'
p1476
F-0.0630418192117894
sS'CTAAGT'
p1477
F-0.2915257749253926
sS'GTATGA'
p1478
I0
sS'GGGGCA'
p1479
F0.9004905432078695
sS'GGGGCG'
p1480
F0.8787712935146332
sS'TTCAAC'
p1481
F0.07154569145669772
sS'TATATC'
p1482
F-0.49679136030188836
sS'TATATA'
p1483
F-1.1326666624422328
sS'TGTATA'
p1484
F-0.8807484289082466
sS'TATATG'
p1485
F-0.5624708790553978
sS'TCCGGT'
p1486
F0.6874157178990182
sS'GGTCCA'
p1487
F0.6050324704976826
sS'TATATT'
p1488
F-0.7954889861757694
sS'GGACTA'
p1489
F0.15824063952435474
sS'TCTTAC'
p1490
F-0.1630856295091793
sS'TGATGG'
p1491
I0
sS'CTCGGT'
p1492
F0.718677956737078
sS'ATGAGT'
p1493
F0.01242803908571016
sS'GCCCAC'
p1494
F0.09141204134416574
sS'TGATGA'
p1495
I0
sS'TGCCAT'
p1496
F-0.26562025651586
sS'ACTCTT'
p1497
F0.08785748707581117
sS'TGTTTC'
p1498
F-0.6109932828008733
sS'CACATA'
p1499
F-0.6307581620707637
sS'TCATAA'
p1500
I0
sS'CACATG'
p1501
F-0.014289481947867756
sS'TGTTTG'
p1502
F-0.5490484852892845
sS'ATGAGA'
p1503
F-0.10336895038749126
sS'ATGAGC'
p1504
F0.11456647716933488
sS'ATGAGG'
p1505
F0.3330296652747914
sS'GTGGCT'
p1506
F0.7639755474466188
sS'ACTCTG'
p1507
F0.041534980847027045
sS'TGCCAG'
p1508
F0.025429279816169457
sS'ACTCTA'
p1509
F-0.20211195790628267
sS'ATTGTT'
p1510
F-0.07317799544116137
sS'CACATT'
p1511
F-0.3047565393848909
sS'TGCCAC'
p1512
F-0.18827318917271932
sS'AAATTC'
p1513
F-0.25538735102504745
sS'AAATTA'
p1514
F-0.7328149806564677
sS'AAATTG'
p1515
F-0.3369755825246306
sS'TCCACT'
p1516
F0.2140840176057074
sS'TTCAAT'
p1517
F-0.19992449631438478
sS'CTTCGA'
p1518
F0.14376745585576511
sS'CGTACC'
p1519
F0.08606132296006454
sS'TTAATC'
p1520
F-0.5243323981294199
sS'AAATTT'
p1521
F-0.6450747330957984
sS'TTCGAA'
p1522
F0.05624762428091477
sS'CTTAGT'
p1523
F-0.1320617596795764
sS'GGGAAC'
p1524
F0.4626064647363965
sS'GGTGCG'
p1525
F0.9109559768860345
sS'GCGTAT'
p1526
F0.35616406714398563
sS'GGGAAG'
p1527
F0.6964922969176761
sS'GGTGCC'
p1528
F0.8951617097028025
sS'TCGTCC'
p1529
F0.29237656462161915
sS'GCCCAT'
p1530
F0.2801970847093884
sS'AGAGCG'
p1531
F0.39685115591320197
sS'GCGACT'
p1532
F0.7039630323843794
sS'AGAGCC'
p1533
F0.40806830066120314
sS'AGAGCA'
p1534
F0.23387812738414562
sS'GCGTAG'
p1535
I0
sS'GGTGCT'
p1536
F1.1108250823883008
sS'TCCCCA'
p1537
F0.08209513574246315
sS'GCGTAC'
p1538
F0.42442725364454076
sS'TAATTT'
p1539
I0
sS'GCGTAA'
p1540
I0
sS'GCGACG'
p1541
F1.2015205388718506
sS'AGAGCT'
p1542
F0.3742986154040365
sS'GCGACA'
p1543
F0.7628934414305968
sS'TATCGG'
p1544
F-0.13081985296568113
sS'GCGACC'
p1545
F0.570253276458102
sS'TCCGGC'
p1546
F0.9441243401386891
sS'GCAGGA'
p1547
F0.6820375789720605
sS'GCAGGC'
p1548
F0.4036107395604987
sS'GCAGGG'
p1549
F0.8466817771167482
sS'CAATTT'
p1550
F-0.5681962767739628
sS'GCACTA'
p1551
F0.10562506374326527
sS'CCGTGC'
p1552
F0.2779468491989777
sS'GCTCGG'
p1553
F0.789830210177852
sS'TATTCT'
p1554
F-0.46375082508291376
sS'CCGTGG'
p1555
F0.8373786083564081
sS'CTTTAG'
p1556
I0
sS'GCAGGT'
p1557
F-0.43573708723108545
sS'CTTCGT'
p1558
F0.3206662041094963
sS'TATTCC'
p1559
F-0.35096741596063374
sS'CAATTG'
p1560
F-0.15428434893056164
sS'TATTCA'
p1561
F-0.5692023145591101
sS'CAATTA'
p1562
F-0.5113360322221139
sS'TATTCG'
p1563
F-0.10216570043587056
sS'CAATTC'
p1564
F-0.20200369553954894
sS'TGTAGA'
p1565
F-0.43041367194311053
sS'GGCTCA'
p1566
F0.5064789570158527
sS'AGCATT'
p1567
F-0.08489228995025686
sS'GGCTCC'
p1568
F0.5411882839735591
sS'AATCCT'
p1569
F0.25035658548645956
sS'TGTAGG'
p1570
F-0.42683109507453454
sS'GGCTCG'
p1571
F0.6415889894773908
sS'TTCGGA'
p1572
F0.5018318012614831
sS'TTCGGC'
p1573
F0.34840452684174567
sS'CTTTAC'
p1574
F-0.06536305252812187
sS'TTCAAG'
p1575
F0.21051436205428964
sS'TTCGGG'
p1576
F0.5500181541366975
sS'AGCATG'
p1577
F0.09063093595032506
sS'GGCTCT'
p1578
F0.7089971564826445
sS'AGCATC'
p1579
F0.060730433604726936
sS'TTTACT'
p1580
F-0.49176930660617174
sS'AGCATA'
p1581
F-0.332693323810951
sS'TTACAT'
p1582
F-0.6077036260761981
sS'AGACCT'
p1583
F0.16793379052057336
sS'TTCGGT'
p1584
F0.22264404073207222
sS'GTTTAT'
p1585
F-0.29255722480474816
sS'GGGGAG'
p1586
F0.7316437303942684
sS'GCACTC'
p1587
F0.5633603850443001
sS'GCCTTT'
p1588
F0.2671850193435322
sS'TGCTTG'
p1589
F-0.21760876887012495
sS'GTTTAA'
p1590
I0
sS'GAGGTG'
p1591
F0.7489511791089583
sS'AACTTG'
p1592
F-0.07095142845616291
sS'GTTTAG'
p1593
I0
sS'GAGGTA'
p1594
F0.307677767418754
sS'CTGGCT'
p1595
F0.4364855614150883
sS'AGGCGG'
p1596
F0.44405388734805806
sS'AGGCGA'
p1597
F0.17292194971037322
sS'AGGCGC'
p1598
F0.39792216627572763
sS'AGGAGT'
p1599
F0.18712138089502492
sS'ACAGCC'
p1600
F0.4758207058894145
sS'ACAGCA'
p1601
F0.1669360490894882
sS'TCCAGC'
p1602
F0.05635439612703424
sS'ACAGCG'
p1603
F0.5037258924437665
sS'AGGAGC'
p1604
F0.1454219898916562
sS'AGGCGT'
p1605
F0.6541296437141066
sS'AGGAGA'
p1606
F0.13760007682587397
sS'CTGGCG'
p1607
F0.744072719617177
sS'AGGAGG'
p1608
F0.3779597704034617
sS'CTGGCA'
p1609
F0.052667936654757476
sS'CTGGCC'
p1610
F0.4275857728893705
sS'GCGCCC'
p1611
F0.950464518169708
sS'GCATCG'
p1612
F0.5279785189312765
sS'ACAGCT'
p1613
F-0.03715825028423029
sS'GGAAAA'
p1614
F0.06496707608370128
sS'AACGCT'
p1615
F0.6192260043000155
sS'AATTTT'
p1616
F-0.6860795692099433
sS'AAACAG'
p1617
F-0.18104883344259298
sS'TGTCAC'
p1618
F-0.4160888617371762
sS'AAACAC'
p1619
F-0.44790662986366486
sS'GCTCTA'
p1620
F0.337231739557744
sS'AAACAA'
p1621
F-0.5598026365513731
sS'AACGCG'
p1622
F0.7556845617679266
sS'AATTTA'
p1623
F-0.7207972533917362
sS'AATTTC'
p1624
F-0.2467597623243821
sS'AACGCC'
p1625
F0.529737480416223
sS'TTTCAC'
p1626
F-0.529483552795073
sS'ATTGGA'
p1627
F0.3618232164549824
sS'AATTTG'
p1628
F-0.32046835725068423
sS'ATTTAC'
p1629
F-0.4178365490006238
sS'ATTTAA'
p1630
I0
sS'ATTTAG'
p1631
I0
sS'CCCTCG'
p1632
F0.39036902838528165
sS'TAAATA'
p1633
I0
sS'GGAAAG'
p1634
F0.48571834788800694
sS'TGACCA'
p1635
I0
sS'CATTCT'
p1636
F-0.21984242681099145
sS'TAAATC'
p1637
I0
sS'TGACCG'
p1638
I0
sS'GCGCCA'
p1639
F0.819185603530389
sS'CATTCG'
p1640
F0.07065681975354636
sS'CATTCC'
p1641
F-0.2296815370939424
sS'CATTCA'
p1642
F-0.3833981395261333
sS'TCCATA'
p1643
F-0.3036782557783381
sS'GCCTTC'
p1644
F0.5262332334416178
sS'ACAAAT'
p1645
F-0.45661090325127474
sS'GATTAA'
p1646
I0
sS'GTAGGC'
p1647
F0.1163105486408326
sS'GATTAC'
p1648
F0.21916884864579164
sS'GTAGGA'
p1649
F0.2731729537733825
sS'GTAGGG'
p1650
F0.4918266691440587
sS'GATTAG'
p1651
I0
sS'GCGGGT'
p1652
F1.0217059730265208
sS'ACAAAC'
p1653
F-0.3405386988634973
sS'TTTCAA'
p1654
F-0.5049038462910939
sS'ACAAAA'
p1655
F-0.6583115010456205
sS'ACAAAG'
p1656
F-0.13177300004001327
sS'GCGGGC'
p1657
F0.5181556078664079
sS'GTCGGT'
p1658
F0.6690838201265301
sS'GCGGGA'
p1659
F0.5357708189412655
sS'CCCTCA'
p1660
F0.19079667348007753
sS'GATTAT'
p1661
F-0.03894855698231258
sS'GTAGGT'
p1662
F-0.36241475031006787
sS'AACCTG'
p1663
F-0.25237408889982593
sS'TAATGA'
p1664
I0
sS'GATGTT'
p1665
F0.4719423122935834
sS'TAATGC'
p1666
I0
sS'GGGATG'
p1667
F0.6146172011320926
sS'GCCCTT'
p1668
F0.6388155464954329
sS'GCGCCG'
p1669
F1.1907966734800774
sS'GGCGTA'
p1670
F0.2506353751125515
sS'GCCCTC'
p1671
F0.5477780744732088
sS'GATGTG'
p1672
F0.5530360795243803
sS'GCCCTA'
p1673
F0.10912662702875804
sS'GATGTA'
p1674
F0.2132375425283228
sS'GCCCTG'
p1675
F0.5084683404632762
sS'GATGTC'
p1676
F0.6204639726619613
sS'AACCTC'
p1677
F0.17346779522337755
sS'TGAAAT'
p1678
I0
sS'GCTCTT'
p1679
F0.6780374121564209
sS'TTCTAA'
p1680
I0
sS'ATCCGT'
p1681
F0.4833200852462903
sS'TTCTAC'
p1682
F0.0084738199189971
sS'GGCTTA'
p1683
F0.08516309206716423
sS'TTGGAT'
p1684
F0.19815777312644667
sS'TGAAAC'
p1685
I0
sS'TGAAAG'
p1686
I0
sS'CCCTCC'
p1687
F0.0860613229600646
sS'ATCCGC'
p1688
F0.42336928848820704
sS'ATCCGA'
p1689
F0.263999336670533
sS'ATCCGG'
p1690
F0.4723981173057328
sS'TGGCTC'
p1691
F0.24642979775291288
sS'TGGCTA'
p1692
F-0.20506038404366764
sS'TGGCTG'
p1693
F-0.07838595493190897
sS'GGGTGA'
p1694
I0
sS'AGTTGT'
p1695
F-0.5044876412789782
sS'AGCTAT'
p1696
F-0.37832725975289716
sS'ATTAGT'
p1697
F-0.41011590771703776
sS'GTCGGC'
p1698
F0.7720065258349198
sS'TGGCTT'
p1699
F0.06585793687177763
sS'AGTTGG'
p1700
F-0.1156061059477647
sS'AGCTAA'
p1701
I0
sS'AGCTAC'
p1702
F-0.28526143632212303
sS'AGTTGC'
p1703
F-0.3238095458342701
sS'AGTTGA'
p1704
I0
sS'AGCTAG'
p1705
I0
sS'TCCTAG'
p1706
I0
sS'TCCAGT'
p1707
F-0.02725908711913974
sS'CTAATT'
p1708
F-0.6925083632223068
sS'CAGTGT'
p1709
F-0.12518183548367606
sS'TAACAA'
p1710
I0
sS'TCAGGT'
p1711
F-0.17886438589822026
sS'TCAAGG'
p1712
F0.1391095030741189
sS'GTCGGG'
p1713
F1.053623480454766
sS'TCAAGC'
p1714
F0.08637960401637926
sS'CTGCAC'
p1715
F-0.3972526034050702
sS'CTAATA'
p1716
F-0.6440822013524932
sS'CAGTGC'
p1717
F0.05609809958262135
sS'CTAATC'
p1718
F-0.27959119858061643
sS'CAGTGA'
p1719
I0
sS'CAGTGG'
p1720
F0.2974042548716128
sS'CTAATG'
p1721
F-0.21256426804673131
sS'TCAAGT'
p1722
F-0.13514322102040016
sS'CTGCAA'
p1723
F-0.3521815472571377
sS'GAGCCC'
p1724
F0.7270393803183965
sS'TCAGGC'
p1725
F0.4311865768766837
sS'CGAGCT'
p1726
F0.701800004812535
sS'TCCTAA'
p1727
I0
sS'GATCAG'
p1728
F0.36733728020326706
sS'CAACCA'
p1729
F-0.04500651294756427
sS'GTTCAT'
p1730
F-0.023631844556820415
sS'TTCCCT'
p1731
F0.2506102285052139
sS'TAACAG'
p1732
I0
sS'CGAGCG'
p1733
F0.5509481212627154
sS'GTTAGT'
p1734
F-0.23413925335443572
sS'CGAGCA'
p1735
F0.4918266691440587
sS'GAGCCG'
p1736
F0.7010862914523946
sS'CGAGCC'
p1737
F0.44907468872310885
sS'GTTCAG'
p1738
F0.3402678851037539
sS'TTCCCC'
p1739
F-0.12555008026800943
sS'GTTCAC'
p1740
F0.22693705598940414
sS'GTTCAA'
p1741
F0.00334174985333108
sS'TGAGCA'
p1742
I0
sS'GGACCT'
p1743
F0.73558553871268
sS'TACATG'
p1744
F0.04474590752571618
sS'AAGTAC'
p1745
F0.13151563537515895
sS'AAGTAA'
p1746
I0
sS'TACATC'
p1747
F0.06666144215537852
sS'AAGTAG'
p1748
I0
sS'TACATA'
p1749
F-0.47943089389555726
sS'GCACAC'
p1750
F0.10384103056707426
sS'GGACCG'
p1751
F1.103947986479917
sS'ATTGGT'
p1752
F0.25167205467498577
sS'GGACCA'
p1753
F0.6336402553224949
sS'TCATCA'
p1754
F-0.03938697588634307
sS'GGACCC'
p1755
F0.5196557630088161
sS'CACACG'
p1756
F-0.08843619308905938
sS'TACATT'
p1757
F-0.2824178579067759
sS'CACACC'
p1758
F-0.09092816698851694
sS'GCACAA'
p1759
F0.14066870976298135
sS'CACACA'
p1760
F-0.5604129489445366
sS'TCTGCC'
p1761
F0.49979559881533414
sS'TCTGCA'
p1762
F0.24291322403007576
sS'TCTGCG'
p1763
F0.6850859533367539
sS'TAGATT'
p1764
I0
sS'CCCGTC'
p1765
F0.45611111687752426
sS'TTAAGG'
p1766
F-0.3175233516293351
sS'CCCGTA'
p1767
F0.07429110440864034
sS'CGTCGA'
p1768
F0.2963068582500515
sS'CCCGTG'
p1769
F0.7410250265351717
sS'TTAAGC'
p1770
F-0.31512264867592465
sS'TTACGT'
p1771
F-0.9546257658091517
sS'TAGATC'
p1772
I0
sS'TGTCAA'
p1773
F-0.4320185394385043
sS'TAGATA'
p1774
I0
sS'TTTCGC'
p1775
F-0.146145878074548
sS'TAGATG'
p1776
I0
sS'TGGTTA'
p1777
F-0.44930667163511984
sS'TCTGCT'
p1778
F0.4954653036820351
sS'TTACGC'
p1779
F-0.29178747694108703
sS'TTAAGT'
p1780
F-0.5241429465756839
sS'TTACGA'
p1781
F-0.24553051021045985
sS'TTACGG'
p1782
F-0.11883349394582121
sS'CCCGTT'
p1783
F0.28992814648209203
sS'AGTGAC'
p1784
F0.20269589677978528
sS'AGTGAA'
p1785
F0.030591482069177108
sS'AGTGAG'
p1786
F0.30082081604751215
sS'GCGGTC'
p1787
F0.7348647178303532
sS'CGGGCG'
p1788
F1.2699779195277023
sS'CCCTCT'
p1789
F0.09494291023929906
sS'TAAGAG'
p1790
I0
sS'CCTGAT'
p1791
F0.6732250551206763
sS'GAAAGT'
p1792
F-0.05591767954901273
sS'CGGGCA'
p1793
F0.8824674390745969
sS'TAAGAC'
p1794
I0
sS'ATTTAT'
p1795
F-0.7292122292868904
sS'AGTGAT'
p1796
F0.21074023635875827
sS'TAAGAT'
p1797
I0
sS'CCTGAA'
p1798
F0.3757296138169841
sS'CCTGAC'
p1799
F0.6337697447184579
sS'CCTGAG'
p1800
F0.7328587351327546
sS'GTTAGG'
p1801
F0.13329297217708994
sS'ATTGGG'
p1802
F0.39162312825155066
sS'TATACT'
p1803
F-0.5419652885539271
sS'GTTAGC'
p1804
F0.03158594970521492
sS'CTCCAG'
p1805
F0.3588822776112458
sS'GTTAGA'
p1806
F-0.07960246688112407
sS'TGTAGC'
p1807
F-0.4911750846428657
sS'GCCAAA'
p1808
F0.2715317475963241
sS'TATACG'
p1809
F-0.6232413134379469
sS'GGTAGC'
p1810
F0.3324324231702571
sS'TATACC'
p1811
F-0.5106479499837966
sS'TATACA'
p1812
F-0.666535822951191
sS'ATTGGC'
p1813
F0.2058853442743007
sS'TCTTGT'
p1814
F-0.46097443677529976
sS'TCCACG'
p1815
F0.42688586221104413
sS'ACTAGT'
p1816
F-0.1571144730917352
sS'TTGACT'
p1817
F-0.03707010982527831
sS'GTAATA'
p1818
F-0.6107134223703244
sS'AACGCA'
p1819
F0.34118253230085693
sS'GTAATC'
p1820
F-0.2579151859307633
sS'TCTAAC'
p1821
F-0.15769059762247317
sS'CGTTCT'
p1822
F0.1440532699377513
sS'CCACCG'
p1823
F0.9906069844525851
sS'GGTAGG'
p1824
F0.23315912714375608
sS'CCACCA'
p1825
F0.5499940768265373
sS'CCACCC'
p1826
F0.4558290158725398
sS'GTTCGT'
p1827
F0.3117167940082867
sS'TTTATG'
p1828
F-0.4326388894842227
sS'ACTAGG'
p1829
F0.07728739865255942
sS'TTTATC'
p1830
F-0.43041367194311053
sS'ACTAGC'
p1831
F0.06433141691030507
sS'TTTATA'
p1832
F-0.7923617804643842
sS'ACTAGA'
p1833
F-0.27003953797002134
sS'CCACCT'
p1834
F0.66791792819974
sS'CGTTCG'
p1835
F-0.0003583320114795784
sS'TCGTTG'
p1836
F0.12306919968831176
sS'CGTTCA'
p1837
F0.12233929282422584
sS'CGTTCC'
p1838
F0.13439264228202272
sS'TCTAAT'
p1839
F-0.2043682811371879
sS'TCGTCT'
p1840
F0.3367797268562169
sS'CTTTGT'
p1841
F-0.4385987332244145
sS'AAACAT'
p1842
F-0.5293317159861644
sS'ACTGGA'
p1843
F0.6103235048030377
sS'ACTGGC'
p1844
F0.4536350507019207
sS'TAGTCC'
p1845
I0
sS'GTGACC'
p1846
F0.1959363131324887
sS'TAGTCA'
p1847
I0
sS'GTGACA'
p1848
F0.22845408700870315
sS'TAGTCG'
p1849
I0
sS'GTGACG'
p1850
F0.6782999639934619
sS'TGTCAT'
p1851
F-0.5136362265574433
sS'ACTGGT'
p1852
F0.6330174543088407
sS'CTTTGG'
p1853
F-0.12481532205690078
sS'CCTATG'
p1854
F0.21538594671552894
sS'CTTTGC'
p1855
F-0.3061419849455667
sS'CTACGC'
p1856
F0.1485989936856227
sS'GTGACT'
p1857
F0.2731885274194819
sS'TAGTCT'
p1858
I0
sS'GTGCAC'
p1859
F0.04882459757299729
sS'CGACGG'
p1860
F0.5063853893149837
sS'ACCTAG'
p1861
I0
sS'CGACGA'
p1862
F0.09642392853738137
sS'ACCTAA'
p1863
I0
sS'CGACGC'
p1864
F0.7648279412077963
sS'ACCTAC'
p1865
F-0.35406267594530205
sS'CCGCAG'
p1866
F0.7482286793883347
sS'CCGCAA'
p1867
F0.5740134253314089
sS'CCGCAC'
p1868
F0.19079667348007756
sS'CTACGG'
p1869
F0.3251331844287576
sS'ACCTAT'
p1870
F-0.47944917959404654
sS'CGACGT'
p1871
F0.40718252739493166
sS'CGAAGA'
p1872
F0.1236465148539882
sS'CCCCGT'
p1873
F0.37788331683722204
sS'CGAAGG'
p1874
F0.1506794502720951
sS'GCGCTC'
p1875
F0.8542283524371073
sS'GTGCAT'
p1876
F-0.025108559379007092
sS'GCGCTA'
p1877
F0.3097942164509724
sS'CCGCAT'
p1878
F0.33237708140759487
sS'GTTCGC'
p1879
F0.3246902527413039
sS'GAAGAT'
p1880
F0.5815665632218547
sS'GGATCT'
p1881
F0.41931150532527706
sS'TCATGA'
p1882
I0
sS'TCGGAA'
p1883
F0.23896023380663112
sS'TCGGAC'
p1884
F0.5168089572311358
sS'GAATCT'
p1885
F0.12001063050564323
sS'TCGGAG'
p1886
F0.6535201074990975
sS'GGATCG'
p1887
F0.4662725646716706
sS'GAAGAG'
p1888
F0.6914452920386427
sS'GAAGAA'
p1889
F0.4184884121986196
sS'CGAGAA'
p1890
F0.08916713702069771
sS'GAAGAC'
p1891
F0.6413818601232035
sS'GGATCA'
p1892
F0.30796101322299896
sS'GAATCA'
p1893
F-0.04914677409839812
sS'GAATCC'
p1894
F0.2531799064237361
sS'TCGGAT'
p1895
F0.49856005180302715
sS'GAATCG'
p1896
F0.19404172829322464
sS'ATGGTC'
p1897
F0.13823039536712833
sS'CAGATG'
p1898
F0.3601625709035228
sS'ATGGTA'
p1899
F-0.1552413829090777
sS'TGACCC'
p1900
I0
sS'ATGGTG'
p1901
F0.3530016684711644
sS'CAGATC'
p1902
F0.3403190236945582
sS'ACGCCC'
p1903
F0.05539250319361269
sS'CAGATA'
p1904
F-0.058219958063386264
sS'TGTCAG'
p1905
F-0.2804423990136304
sS'ACGCCT'
p1906
F0.6592143406778617
sS'CAGATT'
p1907
F0.08130518487401858
sS'TGATTA'
p1908
I0
sS'CTCGAC'
p1909
F0.8384053097374227
sS'ATGGTT'
p1910
F0.09747676416064784
sS'TCGCAA'
p1911
F0.07099757652418873
sS'TTGCGC'
p1912
F0.15642777184881504
sS'GCTATT'
p1913
F0.3672943850519992
sS'TGCGTC'
p1914
F0.26256365112537866
sS'GCGTGG'
p1915
F0.9291807969922335
sS'TTGTAG'
p1916
I0
sS'AATGGT'
p1917
F0.26370317389882353
sS'TCCACC'
p1918
F0.3525804674958819
sS'CTACGT'
p1919
F-0.1763940582390175
sS'AATGGC'
p1920
F0.41356847228961263
sS'AATGGA'
p1921
F0.2590859509862
sS'AATGGG'
p1922
F0.3247647266301777
sS'CCCCGA'
p1923
F0.05609809958262135
sS'AATAGA'
p1924
F-0.5122898970507734
sS'AATAGC'
p1925
F-0.18542408549872366
sS'GTGAAT'
p1926
F0.09509342159147513
sS'AGCCAG'
p1927
F0.29433726538714705
sS'GGAGGG'
p1928
F1.2346499571859595
sS'AAAAGT'
p1929
F-0.5258588976376665
sS'AGCCAC'
p1930
F0.13770099574669417
sS'AGCCAA'
p1931
F-0.08425447979804923
sS'TGGTAG'
p1932
I0
sS'CGCCAT'
p1933
F0.3262700816274947
sS'GAGTGT'
p1934
F0.05744518990536192
sS'TGGTAC'
p1935
F0.16646409543979776
sS'TGGTAA'
p1936
I0
sS'AAAAGG'
p1937
F-0.28710080035936203
sS'GGAGGT'
p1938
F0.9508274889237267
sS'AGCCAT'
p1939
F-0.01258155923993701
sS'AAAAGC'
p1940
F-0.25237408889982593
sS'AAAAGA'
p1941
F-0.4988457134291949
sS'TCTATA'
p1942
F-0.5372447788031995
sS'GAGTGG'
p1943
F0.4676929894273394
sS'CGCCAG'
p1944
F0.47803838465842546
sS'TGGTAT'
p1945
F-0.2985590376565965
sS'CGCCAA'
p1946
F0.20894893582453353
sS'GAGTGC'
p1947
F0.2704190515939726
sS'CGCCAC'
p1948
F0.6531946713790338
sS'GAGTGA'
p1949
I0
sS'GCCAGG'
p1950
F0.4969663087964698
sS'GCCAGA'
p1951
F0.16816298176654015
sS'GCCAGC'
p1952
F0.18213935394757907
sS'GCCCGT'
p1953
F0.9981061526049346
sS'TACCGA'
p1954
F0.13692129269722297
sS'TACCGC'
p1955
F0.46016366088872107
sS'TACTGA'
p1956
I0
sS'CTTCAT'
p1957
F-0.036890327368494034
sS'GCCCGC'
p1958
F0.4426086464738772
sS'GCCAGT'
p1959
F0.2894403992971345
sS'GCCCGA'
p1960
F0.45403810825465896
sS'GCCCGG'
p1961
F1.4016500387949709
sS'TGCGAT'
p1962
F0.26413453403236425
sS'CTTCAC'
p1963
F0.102472047992583
sS'CTTCAA'
p1964
F0.0904091634029663
sS'CTTCAG'
p1965
F0.3909517394372839
sS'TCCGAG'
p1966
F0.7406425566893131
sS'GTGGGC'
p1967
F0.44031684969429236
sS'TCCGAC'
p1968
F0.6337038276686383
sS'AATTCA'
p1969
F-0.37505114519344007
sS'GGACTG'
p1970
F0.3600051500977746
sS'AATTCC'
p1971
F-0.1733649088140015
sS'AATTCG'
p1972
F-0.10466536794496144
sS'TCCGAT'
p1973
F0.5429791915914399
sS'TAGCGG'
p1974
I0
sS'AATTCT'
p1975
F-0.23739636317758248
sS'TAGCGC'
p1976
I0
sS'GTCATC'
p1977
F0.2636684456206951
sS'GTCATA'
p1978
F-0.1615409775073418
sS'GTCATG'
p1979
F0.21902791258033166
sS'AGCAGG'
p1980
F0.23256882085720404
sS'CCAGGT'
p1981
F0.1522408076527358
sS'TTGGAA'
p1982
F0.1031677855840052
sS'AGCAGC'
p1983
F0.3919986531187899
sS'AGCAGA'
p1984
F-0.02553319517154011
sS'GGGGTG'
p1985
F0.430870243202633
sS'CCAGGG'
p1986
F0.6576642938341871
sS'AGCAGT'
p1987
F0.3063665987815705
sS'CCAGGA'
p1988
F0.7114984995061405
sS'CCAGGC'
p1989
F0.7348647178303531
sS'TCCCCG'
p1990
F0.54297919159144
sS'ATAGAG'
p1991
F0.06886344701150288
sS'CATCTG'
p1992
F-0.16556902551785033
sS'ACGGTC'
p1993
F0.20117870927379936
sS'CATCTA'
p1994
F-0.4095635329699905
sS'ATAGAC'
p1995
F-0.023916382673271404
sS'CATCTC'
p1996
F-0.017823810402523732
sS'CAAGCT'
p1997
F0.47895108793354896
sS'TCCAAC'
p1998
F0.12517193808775962
sS'GGGGTC'
p1999
F0.3309753766451144
sS'CAAGCC'
p2000
F0.38649631307556576
sS'CATCTT'
p2001
F-0.1555358158649275
sS'CAAGCA'
p2002
F0.15508112121354306
sS'CAAGCG'
p2003
F0.631488662573065
sS'GTTCTT'
p2004
F0.17593386934968128
sS'ACATGA'
p2005
I0
sS'CGTAAT'
p2006
F-0.31143530182261603
sS'ACATGC'
p2007
F-0.42505160233351813
sS'TCTTGA'
p2008
I0
sS'ACATGG'
p2009
F0.08999161658849698
sS'AGGGAT'
p2010
F0.40595195537540113
sS'GTACAT'
p2011
F-0.36123445574765994
sS'TGGCGG'
p2012
F0.14804469305912765
sS'CGTAAG'
p2013
F-0.43408614228391806
sS'GAGTCA'
p2014
F0.3195064423077211
sS'ACATGT'
p2015
F-0.4904445638955096
sS'CGTAAC'
p2016
F0.00041650223848145525
sS'CGTAAA'
p2017
F-0.1784574494468003
sS'AGGGAG'
p2018
F0.5748446111964209
sS'TTATTT'
p2019
F-1.01207354002014
sS'AGGGAC'
p2020
F0.3476485745500887
sS'AGGGAA'
p2021
F0.18690162959655338
sS'CCCTTT'
p2022
F-0.36902240101004685
sS'TGTTGT'
p2023
F-0.6602917302233666
sS'TCTTGG'
p2024
F-0.07988930572471836
sS'GTTGTT'
p2025
F0.21269136669471175
sS'ATCCTT'
p2026
F-0.08074892408308307
sS'GCGGGG'
p2027
F1.1072506220300027
sS'TTGTCC'
p2028
F-0.039652247898196324
sS'TTGTCA'
p2029
F-0.18941456823152844
sS'ATCCTC'
p2030
F0.32169944891124963
sS'CTATGA'
p2031
I0
sS'ATCCTA'
p2032
F-0.3701159275179279
sS'GTTGTC'
p2033
F0.4327818865431056
sS'ATCCTG'
p2034
F-0.09551006536319731
sS'GTTGTG'
p2035
F0.27580746318842625
sS'TTGTCT'
p2036
F-0.1232918670491402
sS'CTATGC'
p2037
F-0.31593543584970313
sS'CTGTGG'
p2038
F-0.060319871852070814
sS'AAGGGG'
p2039
F0.26832974114762914
sS'TGACTC'
p2040
I0
sS'TGGGCA'
p2041
F0.4360849576767827
sS'TGGGCG'
p2042
F0.9558262465418161
sS'TGACTG'
p2043
I0
sS'AAGCCG'
p2044
F0.6642836435446459
sS'AAGCCC'
p2045
F0.31006501582492374
sS'AAGCCA'
p2046
F0.20783001277885788
sS'CAAAAT'
p2047
F-0.49360863767623603
sS'CTATGG'
p2048
F-0.01957225845284875
sS'TGGGCT'
p2049
F0.7169673255593569
sS'CAAAAC'
p2050
F-0.36004654590236085
sS'CAAAAA'
p2051
F-0.7167938147385424
sS'AAGCCT'
p2052
F0.46547314330805606
sS'CAAAAG'
p2053
F-0.17994576585288427
sS'TCAATG'
p2054
F-0.05296687891779244
sS'CCCTTA'
p2055
F-0.3401999620224395
sS'TCAATC'
p2056
F-0.21690635236683453
sS'CGTCGT'
p2057
F0.7394931220124241
sS'CAGTTC'
p2058
F0.22180627548241658
sS'CAGTTA'
p2059
F0.0003749878490428687
sS'CAGTTG'
p2060
F0.2303772788943245
sS'GACCCC'
p2061
F0.4422136537391426
sS'CTCTGT'
p2062
F-0.27940734428510133
sS'TCAATT'
p2063
F-0.5520641960604196
sS'TGGCGT'
p2064
F0.2677100580718803
sS'GTTTGG'
p2065
F-0.13259469771558002
sS'CTCTGC'
p2066
F0.05781521661636361
sS'GACCCT'
p2067
F0.7406942614910771
sS'CTCTGA'
p2068
I0
sS'CTCTGG'
p2069
F0.08230478792220593
sS'CAGTTT'
p2070
F0.0017404372600286118
sS'GCGAAG'
p2071
F0.7621050828723231
sS'CTACTC'
p2072
F-0.11696670484287205
sS'TGCTGG'
p2073
F0.1191034488250027
sS'GCGAAC'
p2074
F0.45022513835454137
sS'GAGTCT'
p2075
F0.3777754488525875
sS'GCGAAA'
p2076
F0.40083446206344664
sS'TAGGGA'
p2077
I0
sS'GCTGGT'
p2078
F0.9741547865612171
sS'GTGATT'
p2079
F0.06585793687177763
sS'CTACTA'
p2080
F-0.46294579091856436
sS'TGCTGT'
p2081
F-0.3888224487996396
sS'GCGAAT'
p2082
F0.49568708995729693
sS'TAATGG'
p2083
I0
sS'GTGATG'
p2084
F0.2922782495626174
sS'CTACTG'
p2085
F-0.23376884438276554
sS'GTGATC'
p2086
F0.23308573559615375
sS'GCTGGC'
p2087
F0.7460926975931843
sS'GTGATA'
p2088
F-0.004637129990754541
sS'GCTGGA'
p2089
F0.7872870103838017
sS'TGATAA'
p2090
I0
sS'TGTAGT'
p2091
F-0.4602168761953279
sS'TGATAC'
p2092
I0
sS'TGATAG'
p2093
I0
sS'CTTGTT'
p2094
F0.05453490677438673
sS'GACGGT'
p2095
F1.0665811584908735
sS'GCTAGG'
p2096
F0.5302849209632344
sS'GCTAGA'
p2097
F0.3436216592446438
sS'ATGAAT'
p2098
F-0.17658505191520477
sS'CTATGT'
p2099
F-0.5288675945572189
sS'AAGGGT'
p2100
F0.5264129120755372
sS'TGATAT'
p2101
I0
sS'GTAGTG'
p2102
F0.04719116850588149
sS'GCTAGT'
p2103
F0.288481520738095
sS'ATGAAC'
p2104
F0.07172687053587554
sS'GACGGG'
p2105
F0.9606437610751419
sS'ATGAAA'
p2106
F-0.25207552227205626
sS'GACGGA'
p2107
F0.7602803134570757
sS'ATGAAG'
p2108
F0.22777383567397033
sS'GACGGC'
p2109
F0.9211751420677204
sS'CTTGTC'
p2110
F0.26651738741819586
sS'CTAACT'
p2111
F-0.356704546708592
sS'CCATAG'
p2112
I0
sS'GGTGAA'
p2113
F0.5564312328304793
sS'GGTGAC'
p2114
F0.6573722405285713
sS'GCGTCT'
p2115
F0.6080418373475018
sS'TGTAAA'
p2116
F-0.5644916939440618
sS'GGTGAG'
p2117
F0.43219895947211284
sS'GGAATG'
p2118
F0.5845625658776039
sS'CGTCCT'
p2119
F0.7057064890891398
sS'GGAATC'
p2120
F0.48247790096453536
sS'GGAATA'
p2121
F0.11538813960708687
sS'GCGTCA'
p2122
F0.5244957858974268
sS'GCGTCC'
p2123
F0.66791792819974
sS'GGTGAT'
p2124
F0.6461925733342352
sS'GCGTCG'
p2125
F1.1072506220300027
sS'CGTCCG'
p2126
F0.49182666914405876
sS'GGAATT'
p2127
F0.170454778546125
sS'CGTCCC'
p2128
F0.54297919159144
sS'CGTCCA'
p2129
F0.4629196955338935
sS'TTTCGA'
p2130
F-0.5844300238862494
sS'CCGTAT'
p2131
F0.28130419487900343
sS'GAAGTC'
p2132
F0.39738699124570837
sS'CTACTT'
p2133
F-0.2995182748922914
sS'CGTGGT'
p2134
F0.9357412613490017
sS'GCCGTA'
p2135
F0.6704953510875508
sS'CCGTAC'
p2136
F0.8248258708830818
sS'CCGTAA'
p2137
I0
sS'CCGTAG'
p2138
I0
sS'CTAACA'
p2139
F-0.4377708683275956
sS'GCCGTT'
p2140
F0.8015255051576416
sS'TTGGTG'
p2141
F0.05462071276871469
sS'GAAGTT'
p2142
F0.36172209189501947
sS'GGCGCG'
p2143
F1.54297919159144
sS'ATGCCC'
p2144
F0.20078089438667845
sS'TTAGTT'
p2145
F-0.534161512807648
sS'ATGCCA'
p2146
F0.2007049621403265
sS'GGCGCC'
p2147
F1.0389857904714763
sS'ATGCCG'
p2148
F0.583273786450613
sS'GGCGCA'
p2149
F0.6357332448283388
sS'TATTAC'
p2150
F-0.27629423974865747
sS'ACTATG'
p2151
F-0.04459464945162189
sS'CCATAT'
p2152
F-0.2069104070652162
sS'TTTAAG'
p2153
F-0.2686986180391086
sS'ACTATC'
p2154
F0.011562135454054538
sS'TTTAAA'
p2155
F-0.606475923194758
sS'ACTATA'
p2156
F-0.49855298111637125
sS'TTTAAC'
p2157
F-0.3812353275652581
sS'TATTAT'
p2158
F-0.7377404357243454
sS'TTAGTG'
p2159
F-0.35026586073047283
sS'GGCGCT'
p2160
F1.0103406090219462
sS'TTAGTC'
p2161
F-0.44534310742016026
sS'ATGCCT'
p2162
F0.4027810146474209
sS'TTAGTA'
p2163
F-0.7134782923695446
sS'TTTAAT'
p2164
F-0.592576617558388
sS'ACTATT'
p2165
F-0.23186223180502247
sS'GGGCAT'
p2166
F0.3619245130042087
sS'TCGATA'
p2167
F-0.08653865638569357
sS'TTCTAG'
p2168
I0
sS'TTTCCA'
p2169
F-0.3559706831902191
sS'TTTCCC'
p2170
F-0.3803028621564929
sS'GGGACT'
p2171
F0.5740134253314089
sS'TATCGA'
p2172
F-0.47008328124780185
sS'GTTTGT'
p2173
F-0.475090610645024
sS'TTTCCT'
p2174
F-0.21496867270391667
sS'GGGCAG'
p2175
F0.5411882839735591
sS'GTCTGT'
p2176
F-0.10496908219154644
sS'GGGCAA'
p2177
F0.6474767679571953
sS'GGGCAC'
p2178
F0.381128371650369
sS'GTACGG'
p2179
F0.15128813219640397
sS'GTTTGA'
p2180
I0
sS'GTACGC'
p2181
F-0.07547121592469168
sS'GTACGA'
p2182
F-0.1446888315494054
sS'CCGCTC'
p2183
F0.4435219895695037
sS'GCATGT'
p2184
F-0.24317771371671656
sS'CCGCTA'
p2185
F0.4432762783992135
sS'CCGCTG'
p2186
F0.479114703627921
sS'TGAAAA'
p2187
I0
sS'GCGCGG'
p2188
F0.8105854317684714
sS'GCGCGC'
p2189
F0.24194919592745887
sS'TGTTTT'
p2190
F-1.0951593227570755
sS'GCGCGA'
p2191
F0.7450838830120392
sS'GCATGG'
p2192
F0.37659324104313663
sS'TGGATC'
p2193
F0.00798691276328452
sS'GCATGC'
p2194
F-0.20904120193504575
sS'CCGCTT'
p2195
F0.5982820000583455
sS'GCATGA'
p2196
I0
sS'TTTCAG'
p2197
F-0.3243136011595011
sS'GTCGAC'
p2198
F0.9640954210693091
sS'GCGCGT'
p2199
F0.8348658078155515
sS'GTCGAG'
p2200
F0.8801055326036977
sS'CGTGGC'
p2201
F0.9254822300826309
sS'CTTCCG'
p2202
F0.5977848111295123
sS'TGCGCT'
p2203
F0.3019471256027443
sS'GAGCTC'
p2204
F0.7384465482934754
sS'ATTGAT'
p2205
F0.11796164777944736
sS'GAGCTG'
p2206
F0.6352934529103473
sS'AAACGA'
p2207
F-0.25795669754252337
sS'AAACGC'
p2208
F0.08074949227312267
sS'GTAACA'
p2209
F-0.31779555125084574
sS'GTAGTA'
p2210
F-0.337314598733937
sS'AAACGG'
p2211
F0.11208723028374645
sS'ATTGAA'
p2212
F0.020466499969415398
sS'TGCGCG'
p2213
F0.3668879325357588
sS'ATTGAC'
p2214
F0.13855013717526862
sS'GAGCTT'
p2215
F0.7024890938175368
sS'TGCGCC'
p2216
F0.6473313974179625
sS'ATTGAG'
p2217
F0.32410104238592846
sS'CGCTGA'
p2218
I0
sS'CACGCA'
p2219
F0.2972520043943644
sS'AAACGT'
p2220
F-0.228964335437859
sS'ATTTCG'
p2221
F-0.22452332435501687
sS'ATTTCA'
p2222
F-0.5044708831812391
sS'ATTTCC'
p2223
F-0.3281606502871669
sS'ATCAGT'
p2224
F-0.2110383790754842
sS'ATCGGG'
p2225
F0.8394615595047006
sS'CATAGT'
p2226
F-0.3360123654286924
sS'ATCGGC'
p2227
F0.7046407352244799
sS'ATCGGA'
p2228
F0.5574789884216732
sS'ATTTCT'
p2229
F-0.37723124114686
sS'TACGCC'
p2230
F0.6814907353890138
sS'TGGGTC'
p2231
F0.2555220031167328
sS'TTTCGG'
p2232
F-0.23347227391430922
sS'TGGGTA'
p2233
F-0.11805865969586023
sS'CATAGG'
p2234
F-0.06091714277651956
sS'ATCGGT'
p2235
F0.6025019631428463
sS'ATCAGG'
p2236
F0.08660430425426201
sS'CATAGC'
p2237
F-0.16410870296675822
sS'ATCAGC'
p2238
F0.06585793687177763
sS'ACGGGT'
p2239
F0.6398892045994964
sS'GTCTGA'
p2240
I0
sS'GATTCT'
p2241
F0.17315792506736244
sS'CTTTTG'
p2242
F-0.28912171392154423
sS'GCGTTC'
p2243
F0.5373753140734415
sS'CTTTTC'
p2244
F-0.22892310951520206
sS'CTTTTA'
p2245
F-0.5378583143624307
sS'GATTCC'
p2246
F0.23481350246445137
sS'ACGGGG'
p2247
F0.8080966313647768
sS'ACGGGA'
p2248
F0.5740134253314089
sS'ACGGGC'
p2249
F0.35774455309588904
sS'TACTAT'
p2250
F-0.2732221640929427
sS'CTTTTT'
p2251
F-0.7646606464909285
sS'CGTAGA'
p2252
F0.12993176465666048
sS'TCACGA'
p2253
F-0.012135088237911216
sS'TCACGC'
p2254
F0.029264134595321373
sS'TCACGG'
p2255
F0.23218935863830262
sS'TCTCAT'
p2256
F-0.21275410786014254
sS'TCACGT'
p2257
F-0.35239665862706343
sS'AGTGGA'
p2258
F0.4303741900568655
sS'TTCCAC'
p2259
F-0.08331067936102304
sS'TTCCAA'
p2260
F-0.16255739776122405
sS'TTCCAG'
p2261
F0.17986640567651027
sS'CGAGGC'
p2262
F0.2706733471893536
sS'ACCCTT'
p2263
F0.1124340789131328
sS'TGAAGT'
p2264
I0
sS'ATGCTT'
p2265
F0.1157435022325325
sS'TTCCAT'
p2266
F-0.24285888745849454
sS'ACCCTA'
p2267
F-0.2838069250183384
sS'ACCCTC'
p2268
F0.17080004506382385
sS'TGAAGG'
p2269
I0
sS'ACCCTG'
p2270
F0.11311041851940389
sS'CTGACT'
p2271
F-0.03887741364823539
sS'CCCCTT'
p2272
F-0.07046619531241592
sS'AGTTAT'
p2273
F-0.42679682580268663
sS'CTGACG'
p2274
F0.042055022199152844
sS'CTGACC'
p2275
F-0.05549453260393871
sS'CTGACA'
p2276
F-0.06758906704737147
sS'AGTTAA'
p2277
I0
sS'CCCCTG'
p2278
F-0.13826204578414722
sS'AGTTAC'
p2279
F-0.252854250120449
sS'CCCCTC'
p2280
F0.14394109262035032
sS'AGTTAG'
p2281
I0
sS'CCCCTA'
p2282
F-0.3615755336587773
sS'ACACAG'
p2283
F-0.09132378940886413
sS'ACACAA'
p2284
F-0.5007057223553084
sS'ACACAC'
p2285
F-0.6104480828282974
sS'AATGTT'
p2286
F-0.02329810573213358
sS'CTGCAG'
p2287
F-0.11214231199123464
sS'CATGGG'
p2288
F0.2999411429051456
sS'CATGGA'
p2289
F0.2871799496353247
sS'CATGGC'
p2290
F0.22950437647320115
sS'AATGTC'
p2291
F0.06402932582536949
sS'ACACAT'
p2292
F-0.5041207868447444
sS'AATGTA'
p2293
F-0.31351083225380816
sS'AATGTG'
p2294
F0.06814250017203775
sS'CATGGT'
p2295
F0.29488527111525736
sS'CTGCAT'
p2296
F-0.4168431952287214
sS'GCACAG'
p2297
F0.6192260043000155
sS'ACATTT'
p2298
F-0.4356360697199529
sS'CGAGAT'
p2299
F0.21010182867546418
sS'ATTACT'
p2300
F-0.26672902517620406
sS'ACATTG'
p2301
F-0.11917398356099078
sS'GTACCA'
p2302
F0.20947888644783175
sS'ACATTA'
p2303
F-0.6061752987169858
sS'ACATTC'
p2304
F-0.13676336972295292
sS'ATTACA'
p2305
F-0.4090754316997093
sS'ATGCTC'
p2306
F0.1629571437324899
sS'ATTACC'
p2307
F-0.35327137087019805
sS'CGAGAC'
p2308
F0.34786469522232843
sS'ATTACG'
p2309
F-0.42232874399804476
sS'AAGTCT'
p2310
F0.04232267946055791
sS'ATGCTA'
p2311
F-0.19026279991114142
sS'GGACAT'
p2312
F0.28285418369372184
sS'GCTATA'
p2313
F0.046972592711403874
sS'GCTATC'
p2314
F0.40382332680929944
sS'AAGTCG'
p2315
F0.3957142587144648
sS'AAGTCA'
p2316
F-0.0700306667966542
sS'GCTATG'
p2317
F0.4399950308711905
sS'AAGTCC'
p2318
F0.14428454418582082
sS'GGACAG'
p2319
F0.5765022257351036
sS'GGACAC'
p2320
F0.39036902838528165
sS'GGACAA'
p2321
F0.3876393243521561
sS'GCACCT'
p2322
F0.6259087851922285
sS'AGGGTT'
p2323
F0.06906307674698894
sS'GAGGCG'
p2324
F1.2944103727826406
sS'TGTTGG'
p2325
F-0.39487290165971545
sS'GAGGCA'
p2326
F0.6765180999616575
sS'AGCGCT'
p2327
F0.6549529510353723
sS'GAGGCC'
p2328
F0.79285666480804
sS'TGTTGC'
p2329
F-0.4896899251619281
sS'TTCTCA'
p2330
F-0.22963957019224254
sS'ACTCGA'
p2331
F0.06585793687177763
sS'TAAAAT'
p2332
I0
sS'ACTCGC'
p2333
F0.23892274129727095
sS'ACTCGG'
p2334
F0.3542253888668326
sS'AGCGCA'
p2335
F0.5810042319214245
sS'GAGGCT'
p2336
F0.9106275878481549
sS'AGCGCC'
p2337
F0.5767277746790997
sS'AGGGTG'
p2338
F0.31644912344851794
sS'AGGGTA'
p2339
F-0.10032503352365468
sS'AGCGCG'
p2340
F0.566460287440963
sS'AGGGTC'
p2341
F0.26827813464980793
sS'TAAAAG'
p2342
I0
sS'ACTCGT'
p2343
F0.33542109144663795
sS'TAAAAC'
p2344
I0
sS'TAAAAA'
p2345
I0
sS'ACGTTC'
p2346
F-0.12854352967745447
sS'AGCTGC'
p2347
F-0.7425348415972651
sS'ACGTTA'
p2348
F-0.4965065992544535
sS'AGCTGA'
p2349
I0
sS'ACGTTG'
p2350
F0.10676292463804066
sS'AGCTGG'
p2351
F-0.08531475880143369
sS'TAGGGG'
p2352
I0
sS'TAAATG'
p2353
I0
sS'AGTGCG'
p2354
F0.653610463159863
sS'AGTGCA'
p2355
F0.3177957740837899
sS'AGAGTT'
p2356
F-0.001741436626032049
sS'AGTGCC'
p2357
F0.4306413660000217
sS'CCAAAA'
p2358
F-0.2832187671789518
sS'TTCGTG'
p2359
F0.13990506692032983
sS'TAGGGT'
p2360
I0
sS'GCATAG'
p2361
I0
sS'AGCTGT'
p2362
F-0.5778510361588227
sS'ACGTTT'
p2363
F-0.26110779288660335
sS'AGTGCT'
p2364
F0.4522927831384904
sS'AGAGTC'
p2365
F0.0556866410185394
sS'AGAGTA'
p2366
F-0.23922820752023538
sS'AGAGTG'
p2367
F0.11382277389662046
sS'TTCGTA'
p2368
F-0.3229273544110128
sS'GTTAAA'
p2369
F-0.025091165126354176
sS'CCTGGC'
p2370
F0.6406309545354067
sS'GTTAAC'
p2371
F0.08616254530801225
sS'CCTGGA'
p2372
F0.7144502530103761
sS'CCTGGG'
p2373
F0.7375538563411344
sS'GTTAAG'
p2374
F0.1936768937698423
sS'TTCGTC'
p2375
F0.25168714833758093
sS'GCACCC'
p2376
F0.3798529097001264
sS'GTCTGG'
p2377
F0.31109050504261393
sS'GTCTGC'
p2378
F0.17141317527340186
sS'GTTAAT'
p2379
F-0.15586741610163937
sS'CCTGGT'
p2380
F0.7490181327022309
sS'TCTAAA'
p2381
F-0.24025508149288008
sS'GGAAGG'
p2382
F0.4605689754136167
sS'CCACAT'
p2383
F-0.0479862727609833
sS'GGAAGC'
p2384
F0.8079553284574287
sS'GCACCG'
p2385
F0.9770962769962981
sS'GGAAGA'
p2386
F0.36904324456189375
sS'GCGTTA'
p2387
F0.4168619074975974
sS'CAATGA'
p2388
I0
sS'CCCGCA'
p2389
F0.43824384107142705
sS'CAATGC'
p2390
F-0.3059608797845287
sS'GCGTTG'
p2391
F0.661016395055542
sS'CAATGG'
p2392
F0.0448153341322001
sS'CCACAG'
p2393
F0.30514233659095336
sS'GGAAGT'
p2394
F0.5671523903474427
sS'CCACAC'
p2395
F-0.17208568997482843
sS'CCACAA'
p2396
F-0.08999506000791241
sS'ATTTGT'
p2397
F-0.7289861631954768
sS'TCCTCG'
p2398
F0.36273197276460106
sS'TGTATG'
p2399
F-0.4525047072435962
sS'CAATGT'
p2400
F-0.52702001091819
sS'GCGTTT'
p2401
F0.3875566508038939
sS'TCCTCC'
p2402
F0.3582017533506661
sS'TGTATC'
p2403
F-0.40960253386642026
sS'CGTTAG'
p2404
I0
sS'TAACCG'
p2405
I0
sS'TCAAAC'
p2406
F-0.1903597143758413
sS'TCAGGG'
p2407
F0.4870383683575843
sS'CGTTAC'
p2408
F0.20043276251881587
sS'TAACCC'
p2409
I0
sS'CGTTAA'
p2410
I0
sS'TAACCA'
p2411
I0
sS'ACCGCT'
p2412
F0.7069693975430625
sS'TCGCGA'
p2413
F0.35958869379425934
sS'TAGTGT'
p2414
I0
sS'TCAGGA'
p2415
F0.393734901714574
sS'TTCGTT'
p2416
F-0.167751923630369
sS'TACCCT'
p2417
F0.2542829310011842
sS'TAACCT'
p2418
I0
sS'CGTTAT'
p2419
F-0.18700849846565007
sS'GTGAAA'
p2420
F0.13326863377303155
sS'GTGAAC'
p2421
F0.2756977790151186
sS'TGCATA'
p2422
F-0.6512791241226058
sS'ACCGCG'
p2423
F0.9558262465418161
sS'ACCGCA'
p2424
F0.5650293323345141
sS'CCCTAT'
p2425
F-0.24190544145117196
sS'ACCGCC'
p2426
F0.9637467301779135
sS'AGATCC'
p2427
F0.07161026576086887
sS'AGGCTT'
p2428
F0.32325413560493926
sS'CCTTCT'
p2429
F0.38990933585027115
sS'GGGACG'
p2430
F0.5326995523468695
sS'TGTCGC'
p2431
F0.06083713549672671
sS'GTTGCC'
p2432
F0.718677956737078
sS'GTGCCG'
p2433
F0.9360666974690656
sS'GTGCCA'
p2434
F0.4753473947495634
sS'GTTGCG'
p2435
F0.7977639993027841
sS'GTGCCC'
p2436
F0.38327834872392813
sS'CCGCCG'
p2437
F1.4849872446137533
sS'AGGCTA'
p2438
F0.1554687111383346
sS'CCTTCC'
p2439
F0.49604725126217053
sS'AGGCTC'
p2440
F0.32829288212600954
sS'CCGCCC'
p2441
F0.6587745487598702
sS'TGTCGA'
p2442
F-0.14183230825560597
sS'CCGCCA'
p2443
F0.8930946211650239
sS'AGGCTG'
p2444
F0.45455728880890256
sS'GTGCCT'
p2445
F0.5584568021934517
sS'TCCAAA'
p2446
F-0.1689456118079159
sS'GTTGCT'
p2447
F0.6381700752615744
sS'GGATAT'
p2448
F0.13732082766735462
sS'TCGGGT'
p2449
F0.5332193543022837
sS'ATTTGA'
p2450
I0
sS'GCAGTT'
p2451
F0.5081053697092576
sS'GAAGCT'
p2452
F0.6525134249932217
sS'GGATAA'
p2453
I0
sS'GGATAC'
p2454
F0.2974466243760677
sS'TCGGGG'
p2455
F0.4338347221663721
sS'GGATAG'
p2456
I0
sS'GAAGCG'
p2457
F0.718696220135466
sS'CCGCCT'
p2458
F0.7700604681414734
sS'GCAGTG'
p2459
F0.6043093139736074
sS'GAAGCC'
p2460
F0.6786901586989637
sS'GCAGTA'
p2461
F0.2633473406286893
sS'GAAGCA'
p2462
F0.44813769918618107
sS'GCAGTC'
p2463
F0.3654663454009647
sS'CGCCCG'
p2464
F1.1328047265023908
sS'GAGAGA'
p2465
F0.0299453809811331
sS'CGCCCC'
p2466
F0.4016500387949707
sS'CGCCCA'
p2467
F0.5282559347707336
sS'AGTTTG'
p2468
F-0.17820209095783504
sS'ACGCAG'
p2469
F0.23050604458555113
sS'ACGCAC'
p2470
F-0.26061918100468295
sS'ACGCAA'
p2471
F-0.11023332218390368
sS'CTCGCA'
p2472
F0.48842042045214723
sS'ACGTAC'
p2473
F-0.6688276197307758
sS'CCCTAG'
p2474
I0
sS'ACGCAT'
p2475
F-0.08158814073437357
sS'AGTTTC'
p2476
F-0.22105784972699336
sS'GCCGGG'
p2477
F0.8800068405269401
sS'TACCCG'
p2478
F0.6963705605519447
sS'GCCGGC'
p2479
F1.559548293024633
sS'CATGTT'
p2480
F-0.14007994078634017
sS'GCCGGA'
p2481
F1.433834722166372
sS'TTGGGG'
p2482
F0.15681217616971013
sS'AGATCT'
p2483
F-0.06317794787756738
sS'ACGTAG'
p2484
I0
sS'GCCACT'
p2485
F0.5422245528578584
sS'CATGTA'
p2486
F-0.3984418853821974
sS'GTTGCA'
p2487
F0.3292717449297901
sS'CATGTC'
p2488
F0.0017404372600287078
sS'GCCGGT'
p2489
F1.6291412110662742
sS'CATGTG'
p2490
F-0.11683510266893435
sS'GTGCGA'
p2491
F0.33346417704880915
sS'TACCCC'
p2492
F0.0772873986525595
sS'GATTGG'
p2493
F0.3495474077168381
sS'GGCCTG'
p2494
F0.15603456722086567
sS'GGCCTC'
p2495
F0.6721549811429947
sS'GGCCTA'
p2496
F-0.009206742981015061
sS'TTTGTT'
p2497
F-0.45386646023937727
sS'AATCGG'
p2498
F0.09474750214515727
sS'AATCGC'
p2499
F0.06262896674157906
sS'AATCGA'
p2500
F-0.27597726400706973
sS'TTCCCA'
p2501
F0.021363718082070694
sS'GGCCTT'
p2502
F0.45873322946303885
sS'TCACTA'
p2503
F-0.32217864235178495
sS'TCACTC'
p2504
F-0.09476063552769627
sS'AATCGT'
p2505
F-0.09361481014915522
sS'AGCCGA'
p2506
F0.2699779195277024
sS'CCTTCA'
p2507
F0.3189170688745668
sS'AGCCGC'
p2508
F0.45280256124235196
sS'TAATTG'
p2509
I0
sS'AAAAAT'
p2510
F-0.7046005647604885
sS'AGCCGG'
p2511
F0.66791792819974
sS'GTTTTT'
p2512
F-0.671943698131224
sS'TGGTGA'
p2513
I0
sS'GATGGA'
p2514
F0.7625633049784367
sS'TGGTGC'
p2515
F-0.07500094573049702
sS'CCAAGT'
p2516
F0.1215237160927017
sS'GGGCTG'
p2517
F0.6415889894773908
sS'TGGTGG'
p2518
F0.15932983239095672
sS'GATGGG'
p2519
F0.7942346495132444
sS'AAAAAA'
p2520
F-0.9870684252719746
sS'AAAAAC'
p2521
F-0.5170388951691754
sS'GAGCGA'
p2522
F0.2707472633637986
sS'AGCCGT'
p2523
F0.508934571835915
sS'AAAAAG'
p2524
F-0.3241131421289847
sS'TGACAG'
p2525
I0
sS'CCAAGG'
p2526
F0.32683741610648104
sS'CTACAT'
p2527
F-0.5055856698822991
sS'TCTCAG'
p2528
F0.21797633623920307
sS'CCAAGC'
p2529
F0.42165744361553525
sS'TGGTGT'
p2530
F-0.3340427725657879
sS'CCAAGA'
p2531
F0.08335706014205897
sS'AGAACT'
p2532
F-0.13150246213685052
sS'GCATTA'
p2533
F-0.11122147842796971
sS'CCTTCG'
p2534
F0.7323759174266585
sS'TACCAT'
p2535
F-0.12830643546959872
sS'AGATAG'
p2536
I0
sS'CACTGT'
p2537
F-0.35248531729469873
sS'ACCCGA'
p2538
F0.09652675663822957
sS'ATGTCT'
p2539
F-0.0008546686162491735
sS'ACCCGC'
p2540
F0.1576283102274229
sS'AGATAA'
p2541
I0
sS'TACCAC'
p2542
F-0.0590807997365223
sS'AGAACG'
p2543
F-0.15313360190009792
sS'TACCAA'
p2544
F-0.20221951549226022
sS'AGAACA'
p2545
F-0.3344457741909773
sS'TACCAG'
p2546
F0.2790421700365805
sS'AGAACC'
p2547
F-0.09073553248462538
sS'ATGTCA'
p2548
F-0.08995736620959212
sS'CACTGG'
p2549
F0.16661128896159433
sS'AGATAT'
p2550
F-0.4653787634983298
sS'TGACAA'
p2551
I0
sS'ACCAGG'
p2552
F-0.11023332218390361
sS'CACTGC'
p2553
F-0.11313831282731081
sS'ATGTCG'
p2554
F0.3135408906038356
sS'CACTGA'
p2555
I0
sS'TAGGTT'
p2556
I0
sS'GTTTAC'
p2557
F-0.02113301080431112
sS'AATTAT'
p2558
F-0.5751201204865546
sS'CTGTTG'
p2559
F-0.1318752471227465
sS'TGCTAT'
p2560
F-0.48469223500641834
sS'CTGTTC'
p2561
F-0.16618472751305363
sS'CGGGTT'
p2562
F0.385530042591817
sS'CTGTTA'
p2563
F-0.4046829725365633
sS'AATTAC'
p2564
F-0.31542696294389205
sS'AATTAA'
p2565
I0
sS'AATTAG'
p2566
I0
sS'TAGGTC'
p2567
I0
sS'CGGGTC'
p2568
F0.5643773362926705
sS'CTGTTT'
p2569
F-0.4704734829648896
sS'CGGGTA'
p2570
F0.197530056139046
sS'CGGGTG'
p2571
F0.2825670468357229
sS'CCAAAC'
p2572
F-0.002565385478610046
sS'CTTCGG'
p2573
F0.517132534408829
sS'CACACT'
p2574
F-0.031584626150163324
sS'TGGATG'
p2575
F0.1481465564305113
sS'AGCAAA'
p2576
F-0.13151292055386618
sS'ATATAT'
p2577
F-1.0087153669354936
sS'AGCAAC'
p2578
F0.13416615232544057
sS'TTAGGC'
p2579
F0.10332032840157025
sS'AAAGCT'
p2580
F0.3276199976194046
sS'AGCAAG'
p2581
F0.20681188922857907
sS'AAAGCA'
p2582
F0.061664938638962295
sS'ATATAG'
p2583
I0
sS'TTAGGT'
p2584
F-0.2988411386615809
sS'ATATAA'
p2585
I0
sS'AGCAAT'
p2586
F0.03133417894295592
sS'ATATAC'
p2587
F-0.5263510568034594
sS'ATAGCA'
p2588
F-0.008142796672066941
sS'ATAGCC'
p2589
F0.2696711060342612
sS'TACTTG'
p2590
F-0.009234427091424642
sS'ATAGCG'
p2591
F0.3624788136307038
sS'TCTCAC'
p2592
F-0.18246570827620057
sS'TGCTAA'
p2593
I0
sS'ATAGCT'
p2594
F0.016299157430953653
sS'TACTTT'
p2595
F-0.40893465552930214
sS'GTTTTC'
p2596
F-0.1387421945139872
sS'CGAGTT'
p2597
F0.14302389168407684
sS'CTCGCC'
p2598
F1.0027263502416797
sS'CGTACT'
p2599
F0.09838716169869757
sS'TCCCGT'
p2600
F0.36966298659053093
sS'ACATAC'
p2601
F-0.453635799207148
sS'CTTAAG'
p2602
F0.12930515493203704
sS'ACATAA'
p2603
I0
sS'CTTAAA'
p2604
F-0.11162158489582397
sS'AGGGGT'
p2605
F0.4361265189459568
sS'CTTAAC'
p2606
F0.0045514145938571286
sS'CGTACA'
p2607
F-0.20714333519196015
sS'CGAGTG'
p2608
F0.24991812559873422
sS'TTGTTA'
p2609
F-0.6044893690981891
sS'CGAGTA'
p2610
F-0.0733212388511325
sS'CGAGTC'
p2611
F0.4627984181016886
sS'AGGGGA'
p2612
F0.13017528669270562
sS'CTTAAT'
p2613
F-0.24222787466037418
sS'AGGGGC'
p2614
F0.07382686654305297
sS'TATGCA'
p2615
F-0.11087246060963826
sS'AGGGGG'
p2616
F0.19079667348007756
sS'TCATTA'
p2617
F-0.6010462548974422
sS'CGACTT'
p2618
F-0.014583961677591213
sS'TCGGGC'
p2619
F0.47959221272704716
sS'TTGTAA'
p2620
I0
sS'TTGTAC'
p2621
F-0.2128240042373275
sS'GTACCT'
p2622
F-0.12619344557763074
sS'TCATTG'
p2623
F-0.21111510277180665
sS'TGAATC'
p2624
I0
sS'CGACTA'
p2625
F-0.17390240205328092
sS'TGAATA'
p2626
I0
sS'CGACTC'
p2627
F0.36325364788066467
sS'TGAATG'
p2628
I0
sS'AAGTAT'
p2629
F-0.027475351285897585
sS'CGACTG'
p2630
F-0.15298530260485346
sS'TTGCCA'
p2631
F0.08358670383220922
sS'TTGTAT'
p2632
F-0.4179320781598992
sS'ATCGTG'
p2633
F0.2713676630557081
sS'GCTTCG'
p2634
F0.7755518065995695
sS'ATCGTC'
p2635
F0.4242511049980768
sS'ATCGTA'
p2636
F-0.12467675007617668
sS'TGGGAG'
p2637
F0.5569899060342547
sS'TGGGAA'
p2638
F0.26604762589927
sS'TGGGAC'
p2639
F0.46834557329453586
sS'GCTTCT'
p2640
F0.4279718831149625
sS'ATCGTT'
p2641
F0.1686768094903543
sS'GATTGA'
p2642
I0
sS'TGGGAT'
p2643
F0.40750578344402294
sS'GGGCTA'
p2644
F0.487279041393338
sS'CTAGCC'
p2645
F0.2740150084942577
sS'CTAGCA'
p2646
F0.09871464278640503
sS'CTAGCG'
p2647
F0.5810042319214245
sS'CGGTAG'
p2648
I0
sS'ACTTAG'
p2649
I0
sS'ACTTAA'
p2650
I0
sS'CGGTAC'
p2651
F0.472231113080678
sS'ACTTAC'
p2652
F-0.3058730873617568
sS'CGGTAA'
p2653
I0
sS'GACCAG'
p2654
F0.521789892521502
sS'GACCAC'
p2655
F0.09357092473881014
sS'TTGCCC'
p2656
F0.3695605223970857
sS'CTAGCT'
p2657
F0.13730522772906723
sS'TTCGAG'
p2658
F0.6295881903158228
sS'ACTTAT'
p2659
F-0.2711649206153814
sS'CGGTAT'
p2660
F0.18768343805593457
sS'TACACA'
p2661
F-0.2842642172441725
sS'TACACG'
p2662
F0.14991262919424694
sS'GCGAGA'
p2663
F0.5395186594819336
sS'GAGAGC'
p2664
F0.6051730529968962
sS'GCGAGC'
p2665
F0.6789133125012032
sS'GGCCGT'
p2666
F0.9986698054834098
sS'GCGAGG'
p2667
F0.9880109299132175
sS'TTAAGA'
p2668
F-0.4921645442897835
sS'CAGCCG'
p2669
F0.7109525604249418
sS'CAGCCA'
p2670
F0.4616948204560509
sS'CAGCCC'
p2671
F0.6651250280155699
sS'TCCGGG'
p2672
F0.7476015392332858
sS'GCGAGT'
p2673
F0.6777886822260343
sS'CAGCCT'
p2674
F0.7863799079246163
sS'GAACTC'
p2675
F0.3803848074786808
sS'GAACTA'
p2676
F-0.05511461251892095
sS'GGACTT'
p2677
F0.5461492383809468
sS'CACCTA'
p2678
F-0.747055419771078
sS'AACTAT'
p2679
F-0.26616808760741467
sS'CACCTC'
p2680
F0.2510447007619884
sS'CACCTG'
p2681
F-0.5780145506494226
sS'TGATCC'
p2682
I0
sS'AACACT'
p2683
F0.03996859928208558
sS'TGATCA'
p2684
I0
sS'TGATCG'
p2685
I0
sS'TGCATG'
p2686
F-0.36011079540050356
sS'AACTAG'
p2687
I0
sS'GATTTA'
p2688
F-0.1278661018565308
sS'CACCTT'
p2689
F-0.07937325908268524
sS'AACTAC'
p2690
F0.021438797083364776
sS'AACTAA'
p2691
I0
sS'AACACG'
p2692
F0.12155808706987953
sS'AACACA'
p2693
F-0.35268803366778395
sS'AACACC'
p2694
F0.08450004692783579
sS'TGATCT'
p2695
I0
sS'CCAGCA'
p2696
F0.6465197834985096
sS'CTATAC'
p2697
F-0.30580293463543384
sS'CAACAG'
p2698
F0.2501106746960595
sS'GACAGT'
p2699
F0.38230829140325256
sS'CAACAA'
p2700
F-0.053853829602839104
sS'CCAGCC'
p2701
F0.6350367018050843
sS'CAACAC'
p2702
F-0.2530467825619079
sS'GGCCGG'
p2703
F0.92719317575672
sS'CTATAA'
p2704
I0
sS'GACAGG'
p2705
F0.2760557632215976
sS'CAACAT'
p2706
F-0.31798758949492256
sS'GACAGC'
p2707
F0.24194919592745878
sS'GACAGA'
p2708
F0.2250812706401634
sS'GTATTA'
p2709
F-0.5032457490602352
sS'GTATTC'
p2710
F-0.2227628008103836
sS'GTAAGT'
p2711
F-0.7955020488425343
sS'CCAGCG'
p2712
F0.9052788439943439
sS'AGAGGT'
p2713
F0.3303710987099963
sS'GGTGGC'
p2714
F0.9411948552913949
sS'TCCCCT'
p2715
F0.18789168283667038
sS'GGTGGA'
p2716
F1.03419492861644
sS'CGTCAT'
p2717
F0.30162120102316736
sS'GGTGGG'
p2718
F0.8011291907740299
sS'AGAGGC'
p2719
F0.35774455309588904
sS'GTAAGA'
p2720
F-0.4871067831949333
sS'AGAGGA'
p2721
F0.21181848528149036
sS'CGCCCT'
p2722
F0.7648279412077963
sS'AGAGGG'
p2723
F0.39443168178978916
sS'GTAAGG'
p2724
F-0.200957958261102
sS'CGTCAA'
p2725
F0.15007367925162843
sS'CGTCAC'
p2726
F0.2714526050937081
sS'TCCCCC'
p2727
F-0.0037779912696168398
sS'GGTGGT'
p2728
F1.2545123090103134
sS'CGTCAG'
p2729
F0.3754205150855092
sS'GTCCGG'
p2730
F0.6301293673103402
sS'GTCGCA'
p2731
F0.5119449578514712
sS'GTCGCC'
p2732
F1.0497711169783228
sS'CCGTCT'
p2733
F0.7061222808699692
sS'TCGGTA'
p2734
F0.20458495796571088
sS'CTCGCG'
p2735
F0.8242651290596641
sS'TCGGTG'
p2736
F0.5278717733286981
sS'GTCGCT'
p2737
F0.7235837074206641
sS'TACCTA'
p2738
F-0.7017715328362943
sS'GTAACT'
p2739
F-0.25670211463278403
sS'CCGTCG'
p2740
F1.037443002057195
sS'CCGTCA'
p2741
F0.45628834376506966
sS'CCGTCC'
p2742
F0.35712809524660255
sS'GGCTGT'
p2743
F0.20034199138630793
sS'CGCGTG'
p2744
F0.7550681039186401
sS'CTATAT'
p2745
F-0.7045080567052033
sS'CGCGTC'
p2746
F0.79285666480804
sS'CGCGTA'
p2747
F0.2119859725500157
sS'GTTTTA'
p2748
F-0.419956184299323
sS'ATGCAG'
p2749
F0.014317478282564747
sS'CCACTA'
p2750
F-0.11226749209435673
sS'CCACTC'
p2751
F0.19556046327614146
sS'CGCGTT'
p2752
F0.6301293673103402
sS'GGCTGG'
p2753
F0.6606186894582405
sS'GGCTGA'
p2754
I0
sS'GGCTGC'
p2755
F0.4754362529558894
sS'ATGCAT'
p2756
F-0.2323108142091352
sS'TTTAGA'
p2757
F-0.41126331784788484
sS'TTTCAT'
p2758
F-0.6707538824553354
sS'TTGACC'
p2759
F0.11756475994565392
sS'ATGACG'
p2760
F0.270252008827998
sS'GGAGTT'
p2761
F0.6568289560341277
sS'ATGACA'
p2762
F-0.060984768072751765
sS'ATGACC'
p2763
F0.03749629299313574
sS'CGGGCC'
p2764
F0.06585793687177763
sS'GGGCCT'
p2765
F0.4959826289152165
sS'TAAGAA'
p2766
I0
sS'ATGACT'
p2767
F0.08842376477051903
sS'GGAGTA'
p2768
F0.4697183125398214
sS'GGAGTC'
p2769
F0.720372683952366
sS'GGAGTG'
p2770
F0.9516430656552508
sS'GGGCCG'
p2771
F0.5348613013692605
sS'GGGCCC'
p2772
F0.0860613229600646
sS'GGGCCA'
p2773
F0.6078529725991879
sS'GGCAAG'
p2774
F0.48658963518739073
sS'ACGAGT'
p2775
F0.09173845585175518
sS'AGGCCA'
p2776
F0.30643538701041534
sS'AGGCCC'
p2777
F0.18395724894977214
sS'AGGCCG'
p2778
F0.6051270983402846
sS'ACGAGG'
p2779
F0.347292376472378
sS'ACGAGC'
p2780
F0.2085254404405092
sS'GACCCG'
p2781
F0.9070609330025103
sS'ACGAGA'
p2782
F-0.066401752659267
sS'GGCAAC'
p2783
F0.41772494862570886
sS'AGGCCT'
p2784
F0.4905321987910599
sS'AGACGG'
p2785
F0.5051906307020402
sS'GGGTTG'
p2786
F0.32495474390776347
sS'TTTGGG'
p2787
F0.06585793687177763
sS'GGGTTA'
p2788
F0.3165102443383386
sS'GGGTTC'
p2789
F0.1723132677860644
sS'TTTGAT'
p2790
F-0.06854766140879294
sS'TGAACT'
p2791
I0
sS'CTACGA'
p2792
F-0.04563407600927595
sS'ATTGCT'
p2793
F0.402518503981769
sS'GGGTTT'
p2794
F0.19079667348007753
sS'TACAAG'
p2795
F0.26506146416933357
sS'TGCGAG'
p2796
F0.3406812441961741
sS'AACGGC'
p2797
F0.6257202484052851
sS'ATCCAT'
p2798
F-0.1623563354974925
sS'ATTGCA'
p2799
F0.11638331916410995
sS'TTTGGC'
p2800
F0.028438203590025926
sS'ATTGCG'
p2801
F0.42057279149853516
sS'TTTGAC'
p2802
F-0.006350541566889559
sS'TTTGAA'
p2803
F-0.22402029407187377
sS'CGGGCT'
p2804
F0.8897666778160964
sS'CTCGTA'
p2805
F-0.06822417917639206
sS'CTCGTC'
p2806
F0.6842358834747684
sS'CCCTGG'
p2807
F-0.0890440231139655
sS'CCCTGA'
p2808
I0
sS'AAGCTT'
p2809
F0.3275898307386513
sS'CCCTGC'
p2810
F-0.009563160302540352
sS'GTGTAA'
p2811
I0
sS'CCCTGT'
p2812
F-0.3264418044475674
sS'AAGCTC'
p2813
F0.3374329531974831
sS'GATATA'
p2814
F-0.1251059879617568
sS'AAGCTA'
p2815
F-0.010195124112904743
sS'GATATG'
p2816
F0.2543353709423116
sS'AAGCTG'
p2817
F0.20475304337149766
sS'TGACGC'
p2818
I0
sS'TACTCT'
p2819
F-0.14763873837981287
sS'CATCGT'
p2820
F0.10511123601945116
sS'GTAGTC'
p2821
F0.09912161329981825
sS'CAGGGT'
p2822
F0.54297919159144
sS'CCAGTC'
p2823
F0.48003514441450074
sS'TACGAT'
p2824
F0.2877066864881341
sS'CCAGTG'
p2825
F0.46198460478034686
sS'TACTCG'
p2826
F0.20718708966824695
sS'CATCGA'
p2827
F-0.08929941534826065
sS'CATCGC'
p2828
F0.26267868078620293
sS'TACTCC'
p2829
F0.12812646422462015
sS'TACTCA'
p2830
F-0.21758688399109075
sS'CATCGG'
p2831
F0.13623790234078478
sS'CAGGGG'
p2832
F0.4422136537391426
sS'CCAGTT'
p2833
F0.3000376420682809
sS'CAGGGC'
p2834
F0.6201451464037393
sS'AATCTG'
p2835
F-0.12422351958493326
sS'CGGACT'
p2836
F0.5429791915914399
sS'AATCTC'
p2837
F0.0765716267857114
sS'AATCTA'
p2838
F-0.29769549040828736
sS'TGAACG'
p2839
I0
sS'TCACAC'
p2840
F-0.4958811570513899
sS'TCACAA'
p2841
F-0.3018960190275214
sS'TAAATT'
p2842
I0
sS'GCCATA'
p2843
F0.2375400770224038
sS'CGGACG'
p2844
F0.3181960086360343
sS'ACATCG'
p2845
F0.2699779195277024
sS'CGGACA'
p2846
F0.16276794987983395
sS'CGGACC'
p2847
F0.09865045026808505
sS'GCCATG'
p2848
F0.67328628434049
sS'TTTTAA'
p2849
I0
sS'TCACAT'
p2850
F-0.4540554493789177
sS'ATTAAC'
p2851
F-0.2586985948177453
sS'ATTAAA'
p2852
F-0.41632066154055064
sS'ATTAAG'
p2853
F-0.05309043604733493
sS'TTTTAC'
p2854
F-0.4959172940527341
sS'TCACTT'
p2855
F-0.11767855278085251
sS'ATTCGT'
p2856
F0.0970073528115737
sS'GTGCAG'
p2857
F0.1627679498798341
sS'TTACTA'
p2858
F-0.5867163776970172
sS'ATTAAT'
p2859
F-0.4851048103748048
sS'TACCTG'
p2860
F-0.8692430735831274
sS'GGTATG'
p2861
F0.11646086847055924
sS'CTGAAT'
p2862
F-0.14882837259365292
sS'GGTATC'
p2863
F0.40572157938384246
sS'CGAGAG'
p2864
F0.37947705984377933
sS'CTGAAA'
p2865
F-0.16297939899529226
sS'CTGAAC'
p2866
F-0.06695342283640773
sS'TCGACC'
p2867
F0.08131488793560286
sS'GGAACC'
p2868
F0.47821130701066156
sS'CTGAAG'
p2869
F0.20385159461948
sS'CATTGC'
p2870
F-0.30090658111258206
sS'TATGAG'
p2871
F0.1725407066401252
sS'CATTGA'
p2872
I0
sS'CTAGTT'
p2873
F-0.23690577160120407
sS'CATTGG'
p2874
F-0.16990532727961208
sS'TCAACT'
p2875
F-0.045974390818567155
sS'ATGTTA'
p2876
F-0.5178673033868999
sS'ACACCG'
p2877
F0.6523298297751405
sS'CTGCCA'
p2878
F-0.1263628224844395
sS'CTGCCC'
p2879
F-0.1894145682315285
sS'ACACCC'
p2880
F0.0583699154792276
sS'ACACCA'
p2881
F0.060512706542594434
sS'CTGCCG'
p2882
F0.30194712560274417
sS'CTAGTG'
p2883
F-0.05046511718041384
sS'TCAACC'
p2884
F0.07938197158844101
sS'ATGTTC'
p2885
F-0.11801193875752208
sS'CTAGTC'
p2886
F-0.025912436483867728
sS'TCAACG'
p2887
F0.10207010952622234
sS'CTAGTA'
p2888
F-0.35096741596063386
sS'CATTGT'
p2889
F-0.5385307167747675
sS'TATGAC'
p2890
F0.13635580501068312
sS'GTAATG'
p2891
F-0.14214758557028934
sS'ACACCT'
p2892
F0.26039430235940714
sS'CTGCCT'
p2893
F0.29097207391590135
sS'CCTCGT'
p2894
F0.5648626357977486
sS'TTGTGT'
p2895
F-0.6998643242889576
sS'AGACTG'
p2896
F-0.09359165086468625
sS'AGACTC'
p2897
F0.03659387299371698
sS'AGACTA'
p2898
F-0.19146313090679765
sS'CCTCGG'
p2899
F0.6301293673103402
sS'CCTCGC'
p2900
F0.7813970426409893
sS'CCCGAC'
p2901
F0.8700226196203392
sS'CCTCGA'
p2902
F0.6342655364969789
sS'CGAGGA'
p2903
F0.45986765191538287
sS'AGACTT'
p2904
F-0.09277607413316213
sS'CGAGGG'
p2905
F0.5740134253314089
sS'CACCGT'
p2906
F0.46453969547972546
sS'ACTTTA'
p2907
F-0.3730122002187277
sS'ACTTTG'
p2908
F-0.07818314389236859
sS'TAGCTA'
p2909
I0
sS'GACCTG'
p2910
F0.08842376477051903
sS'GTCGCG'
p2911
F0.7530895379365523
sS'GACCTA'
p2912
F0.031095830612565642
sS'GACCTC'
p2913
F0.4596419857726576
sS'CACCGG'
p2914
F0.532513757913275
sS'CTATTG'
p2915
F-0.24699505664513322
sS'CACCGA'
p2916
F0.10963686145036486
sS'ACTTTT'
p2917
F-0.49141343096081613
sS'GACCTT'
p2918
F0.3899022959578743
sS'GGACGC'
p2919
F0.5847704949345137
sS'GGACGG'
p2920
F0.6982027321042077
sS'CTATTA'
p2921
F-0.6808449306534852
sS'CACAGC'
p2922
F-0.12602758936713554
sS'CTTATC'
p2923
F-0.050207706633372
sS'CACAGA'
p2924
F-0.2606866442253085
sS'CTTATA'
p2925
F-0.40903043641559295
sS'CACAGG'
p2926
F0.05855869813027813
sS'CTTATG'
p2927
F-0.1158553357335547
sS'ACTCAT'
p2928
F-0.12484005244584721
sS'CGTATA'
p2929
F-0.36794226835852406
sS'GACGTA'
p2930
F-0.024475563438164708
sS'CGTATC'
p2931
F0.06121303182601407
sS'CTATTC'
p2932
F-0.19363788658861467
sS'GAGGAC'
p2933
F0.6958209697033451
sS'CGTATG'
p2934
F-0.21169096294268072
sS'AGCGAT'
p2935
F0.5785175169704291
sS'TTAACA'
p2936
F-0.564458814019611
sS'ACTCAC'
p2937
F-0.31202998147448663
sS'TTAACC'
p2938
F-0.2831660619947552
sS'ACTCAA'
p2939
F-0.16805716601186108
sS'ACTCAG'
p2940
F0.39923248871658673
sS'CTTATT'
p2941
F-0.22313916940486192
sS'CACAGT'
p2942
F-0.21982436695104896
sS'AGCGAC'
p2943
F0.5635936467893599
sS'TAAACA'
p2944
I0
sS'AGCGAA'
p2945
F0.22316596662339916
sS'GAGGAT'
p2946
F0.9586346553116366
sS'AGCGAG'
p2947
F0.6099259812220532
sS'CGTATT'
p2948
F-0.17204047216210572
sS'TAAACG'
p2949
I0
sS'AGTTCC'
p2950
F-0.14644549483834837
sS'GTATGT'
p2951
F-0.8020429509233001
sS'AGTTCA'
p2952
F-0.20561681523048753
sS'TACTTA'
p2953
F-0.5621064213567604
sS'AGTTCG'
p2954
F0.1530081125906778
sS'TAGCCC'
p2955
I0
sS'CTGTGA'
p2956
I0
sS'CGGGGT'
p2957
F0.2991361482689158
sS'TAGGAC'
p2958
I0
sS'GCAAAG'
p2959
F0.4500719210370575
sS'TAGGAA'
p2960
I0
sS'GCAAAA'
p2961
F-0.10720385163028555
sS'TAGGAG'
p2962
I0
sS'GCAAAC'
p2963
F0.14853657263170233
sS'CGGGGC'
p2964
F0.287706686488134
sS'CGGGGA'
p2965
F0.3056182757968362
sS'CTGTGT'
p2966
F-0.5201271446254465
sS'CGGGGG'
p2967
F0.7348647178303531
sS'GTATGC'
p2968
F-0.40473245068892705
sS'AGTTCT'
p2969
F-0.12166278396468545
sS'GCAAAT'
p2970
F0.030728872853595077
sS'TAGGAT'
p2971
I0
sS'TAATTA'
p2972
I0
sS'CTATTT'
p2973
F-0.63375026667079
sS'TGCTTT'
p2974
F-0.679228600494048
sS'GTCTAT'
p2975
F-0.05959998029076596
sS'GTAATT'
p2976
F-0.5582994447757517
sS'GTTACC'
p2977
F0.07972628301897107
sS'GTTACA'
p2978
F-0.10944726860840419
sS'TAATTC'
p2979
I0
sS'GTTACG'
p2980
F-0.005497971663890645
sS'TATCGC'
p2981
F-0.09923793788244045
sS'TATAGT'
p2982
F-0.5362020544561847
sS'GTCTAA'
p2983
I0
sS'AGGACG'
p2984
F0.3938714222213523
sS'GTCTAC'
p2985
F0.19921168451358673
sS'TGCTTC'
p2986
F-0.2678411755455718
sS'TTCAAA'
p2987
F-0.2609428500506278
sS'GGCGTT'
p2988
F0.7524025441493696
sS'GGGCTC'
p2989
F0.8569741644197888
sS'TATAGC'
p2990
F-0.40507374303018734
sS'TATCGT'
p2991
F-0.13184447119658102
sS'TATAGA'
p2992
F-0.47049788221666733
sS'AGTGGG'
p2993
F0.5594473060501277
sS'TATAGG'
p2994
F-0.3126967440955256
sS'GTGGCG'
p2995
F0.9567134674467096
sS'GTTACT'
p2996
F0.06325580516924158
sS'GCTCTC'
p2997
F0.5963062765129559
sS'AACCTT'
p2998
F-0.046564242314526376
sS'GATGGC'
p2999
F0.7611936565527023
sS'GCTCTG'
p3000
F0.3757583560063992
sS'CCACGT'
p3001
F0.20296258053511218
sS'CAATAT'
p3002
F-0.4608564329397449
sS'CAGGAG'
p3003
F0.6308466168241575
sS'GAATGG'
p3004
F0.35083415265768025
sS'GAATGA'
p3005
I0
sS'ACTACT'
p3006
F0.006543935655795663
sS'GAATGC'
p3007
F-0.019854176334804987
sS'CCACGA'
p3008
F0.20353349488301015
sS'CAATAC'
p3009
F-0.1585380017584587
sS'CCACGC'
p3010
F0.5316981811817509
sS'CAATAA'
p3011
I0
sS'GTTCCG'
p3012
F0.6012652763940536
sS'CAATAG'
p3013
I0
sS'CCACGG'
p3014
F0.6201451464037393
sS'AACCTA'
p3015
F-0.3681970488000937
sS'GAATGT'
p3016
F-0.12774756976140939
sS'ACTACC'
p3017
F0.0488911510145348
sS'GGCTTC'
p3018
F0.24555332019628412
sS'ACTACA'
p3019
F-0.14526694735280565
sS'ACTACG'
p3020
F-0.07495756183536052
sS'GGCTTG'
p3021
F0.324690252741304
sS'CGTTGA'
p3022
I0
sS'AGTCAG'
p3023
F0.036894240936461056
sS'CGTTGC'
p3024
F0.249663332700899
sS'TAACAC'
p3025
I0
sS'TCCTAC'
p3026
F-0.13990399285112398
sS'AGTCAC'
p3027
F-0.3248187385179934
sS'CGTTGG'
p3028
F0.06321784070556921
sS'AGTCAA'
p3029
F-0.27980403587078817
sS'TCATCG'
p3030
F0.3464467722932142
sS'TGAGGG'
p3031
I0
sS'TCATCC'
p3032
F0.12562614187526738
sS'GAGCGG'
p3033
F1.1015734891383122
sS'CTTTCT'
p3034
F-0.2274165940954413
sS'AGTCAT'
p3035
F-0.2742129630306904
sS'TCCTAT'
p3036
F-0.39158317818663163
sS'TAACAT'
p3037
I0
sS'CGTTGT'
p3038
F-0.20186487678116596
sS'CTTTCC'
p3039
F-0.14542242138076944
sS'CTTTCA'
p3040
F-0.19566351750852998
sS'CTTTCG'
p3041
F-0.009563160302540402
sS'GAGCGC'
p3042
F0.7962364054594204
sS'GTTGAT'
p3043
F0.43099782209148885
sS'CGACCA'
p3044
F0.3157354100883775
sS'CGACCC'
p3045
F0.4038714987889288
sS'GCATAC'
p3046
F0.06465988236883075
sS'CGACCG'
p3047
F0.7190704506471213
sS'CCTTAT'
p3048
F0.04419887628291368
sS'GTTGAC'
p3049
F0.46041820489243457
sS'GTTGAA'
p3050
F0.3549256757402579
sS'ACTGGG'
p3051
F0.6646152926496545
sS'GTTGAG'
p3052
F0.7065791925185354
sS'TTAGGG'
p3053
F0.02507308173845885
sS'CCTTAC'
p3054
F0.32794790526638146
sS'TTCGAT'
p3055
F0.20877004449197856
sS'CCTTAA'
p3056
I0
sS'CCTTAG'
p3057
I0
sS'CGACCT'
p3058
F0.3734187996947166
sS'CAACTC'
p3059
F-0.001825070059914397
sS'CAACTA'
p3060
F-0.3413721475704904
sS'CAACTG'
p3061
F-0.08890524871371039
sS'AATAGG'
p3062
F-0.1401965455613468
sS'GATGGT'
p3063
F0.7180977862273267
sS'GGGGTT'
p3064
F0.446703648355693
sS'GGATGT'
p3065
F0.18975143956542753
sS'AATAGT'
p3066
F-0.32180367387408726
sS'GGGCTT'
p3067
F0.6648914735695521
sS'CAACTT'
p3068
F-0.13088898061913437
sS'GGATGC'
p3069
F0.22994879744222585
sS'GGATGA'
p3070
I0
sS'GGATGG'
p3071
F0.7396636007121219
sS'GGGGTA'
p3072
F0.42336928848820704
sS'TCTCCG'
p3073
F0.7307087580591954
sS'GAGTCC'
p3074
F0.37379260073506754
sS'AAACTG'
p3075
F-0.158838655617405
sS'TCTCCC'
p3076
F0.21441220501614158
sS'AAACTA'
p3077
F-0.43301884187665296
sS'TCTCCA'
p3078
F0.30383618678866975
sS'AAACTC'
p3079
F-0.05861255766215737
sS'ACGCGA'
p3080
F0.10062004313098959
sS'AGTACG'
p3081
F-0.05556422601368522
sS'ACGCGC'
p3082
F1.2222051377317016
sS'AGTACC'
p3083
F-0.2196850392212937
sS'ACGCGG'
p3084
F0.22555877973928945
sS'AGTACA'
p3085
F-0.2555388301884268
sS'AAACTT'
p3086
F-0.29032351089848857
sS'CCCTTC'
p3087
F0.0014771486906411267
sS'TCTCCT'
p3088
F0.3910924220976444
sS'CCCTTG'
p3089
F0.031293551755021694
sS'TTCTAT'
p3090
F-0.42447481513120816
sS'AGTACT'
p3091
F-0.11150504924754091
sS'ACGCGT'
p3092
F0.1595389797496355
sS'GCCGAA'
p3093
F0.8178389528951171
sS'GTGGAG'
p3094
F0.9015958197082125
sS'GCCGAC'
p3095
F0.884726453176573
sS'GTGGAC'
p3096
F0.632753511136489
sS'GCCGAG'
p3097
F1.1210663232311466
sS'GTGGAA'
p3098
F0.4420786958505789
sS'TATCAT'
p3099
F-0.5605854004527915
sS'GTGGAT'
p3100
F0.5605324505753859
sS'GCCATC'
p3101
F0.6772579544538835
sS'GCCGAT'
p3102
F0.8499995509446087
sS'CCTATT'
p3103
F0.05341311741751985
sS'ACCCGG'
p3104
F0.41066685711434603
sS'ACCGAG'
p3105
F0.7133818773623501
sS'AAATCG'
p3106
F0.026386061929626312
sS'CACGCG'
p3107
F1.1539940255723289
sS'TTATCG'
p3108
F-0.018087098971911166
sS'ACCGAC'
p3109
F0.4808312848425956
sS'AAATCC'
p3110
F-0.07329117450707551
sS'ACCGAA'
p3111
F0.30064195713161695
sS'AAATCA'
p3112
F-0.38865229272446367
sS'GGCTTT'
p3113
F0.013274459317947638
sS'CTTTGA'
p3114
I0
sS'AGATAC'
p3115
F-0.1894145682315285
sS'TCCCGA'
p3116
F0.2514945138336892
sS'CACGCT'
p3117
F0.6372491084332881
sS'AAATCT'
p3118
F-0.12469966220446718
sS'ACCGAT'
p3119
F0.4730880213140456
sS'GTAGTT'
p3120
F-0.11524254129175807
sS'ACCAGT'
p3121
F0.013618318783182154
sS'GATGAT'
p3122
F0.5869828403666537
sS'GGAGCA'
p3123
F0.8848643791743669
sS'GGAGCC'
p3124
F1.1518786074497078
sS'CCGGCT'
p3125
F1.1012270236377646
sS'CCAAAT'
p3126
F-0.13033279764078132
sS'GGAGCG'
p3127
F0.8739724106328645
sS'AAAACT'
p3128
F-0.41387170095541304
sS'GATGAC'
p3129
F0.6216727402471028
sS'TGTCCC'
p3130
F-0.03712622384847201
sS'GATGAA'
p3131
F0.49953408975847735
sS'GATGAG'
p3132
F0.8035805301998131
sS'AAAACC'
p3133
F-0.199586645211726
sS'AAAACA'
p3134
F-0.5972198170945423
sS'AAAACG'
p3135
F-0.2513186947427605
sS'GGAGCT'
p3136
F0.9554189970937108
sS'CCAAAG'
p3137
F0.30611546472566936
sS'TCGCGG'
p3138
F0.3181960086360343
sS'CTAGAG'
p3139
F0.3328595205196658
sS'TCGCGC'
p3140
F0.5181556078664079
sS'CTACCG'
p3141
F0.3157354100883774
sS'GCCACA'
p3142
F0.33921650593790037
sS'AGATCA'
p3143
F-0.1328973068198474
sS'GCCACC'
p3144
F0.736998847343039
sS'AGAAAT'
p3145
F-0.4532923320311635
sS'TCCCGG'
p3146
F0.6340596609387726
sS'GCGCTT'
p3147
F0.789830210177852
sS'GCCACG'
p3148
F0.534115731260135
sS'AGATCG'
p3149
F0.18605023845561589
sS'ACCAGC'
p3150
F0.16276794987983403
sS'TCGCGT'
p3151
F0.287706686488134
sS'GTGCAA'
p3152
F0.21041906351930198
sS'TCCCAT'
p3153
F-0.18655265025112197
sS'ACCCGT'
p3154
F0.6398892045994964
sS'AGAAAG'
p3155
F-0.1728665419955747
sS'CTAGAC'
p3156
F0.19948285266517027
sS'AGAAAC'
p3157
F-0.2534756696246535
sS'ATGTCC'
p3158
F0.1810680702865084
sS'AGAAAA'
p3159
F-0.5795442111913836
sS'CTACCC'
p3160
F-0.05471599433407222
sS'ATGTAC'
p3161
F-0.10207731756599091
sS'GACCGA'
p3162
F0.5250676022827379
sS'ATGTAA'
p3163
I0
sS'TATGTG'
p3164
F-0.2217838613748501
sS'ATGTAG'
p3165
I0
sS'CCTATA'
p3166
F-0.16899189686622554
sS'CGAAGT'
p3167
F0.03841968852483804
sS'CCGGCA'
p3168
F0.8962327200653281
sS'GACGAC'
p3169
F0.819185603530389
sS'CCTATC'
p3170
F0.13816645487449897
sS'ATGTAT'
p3171
F-0.3441886252618771
sS'ATTAGA'
p3172
F-0.45391524962598795
sS'GGCGTC'
p3173
F0.8421492508712973
sS'GACCGG'
p3174
F0.9738552583584653
sS'AGCACT'
p3175
F0.1697216473964331
sS'TTAGAA'
p3176
F-0.2811954982172234
sS'CGGCTG'
p3177
F0.7818612805065768
sS'TTAGAC'
p3178
F-0.06595051718923418
sS'CGGCTC'
p3179
F0.5389392137896999
sS'TTAGAG'
p3180
F0.012312601308506019
sS'CGGCTA'
p3181
F0.3513757663575113
sS'AGCACC'
p3182
F0.2896326075241724
sS'AGCACA'
p3183
F0.04673179836561297
sS'AGCACG'
p3184
F0.29365601900133514
sS'GGTCGG'
p3185
F0.688701534123032
sS'CGGCTT'
p3186
F0.5765877925725202
sS'TTAGAT'
p3187
F-0.1700015271873934
sS'AAAGAC'
p3188
F0.13378840638364414
sS'CGAAGC'
p3189
F0.2852872123647211
sS'AAAGAA'
p3190
F-0.06478563195075424
sS'AAAGAG'
p3191
F0.18903244160815283
sS'ATATCA'
p3192
F-0.4674055799069372
sS'GCGCTG'
p3193
F1.3558925482342956
sS'TCGCTA'
p3194
F-0.0398533567148965
sS'TGTGAG'
p3195
F0.13196550985110028
sS'TGTGAA'
p3196
F-0.2713692812932224
sS'CTACCT'
p3197
F0.028395545341984994
sS'TGTGAC'
p3198
F-0.09671811755216538
sS'ATATCT'
p3199
F-0.2575340709470837
sS'CCAGCT'
p3200
F0.4931930923433308
sS'AAAGAT'
p3201
F0.15479065560340438
sS'TGTGAT'
p3202
F-0.16008639447468406
sS'TTATTG'
p3203
F-0.6900169188007138
sS'TTATTA'
p3204
F-0.9475874218342077
sS'GAAAGC'
p3205
F0.17395211683234776
sS'TTATTC'
p3206
F-0.5753732796204518
sS'ACATCT'
p3207
F0.018912225373166537
sS'TTTTAT'
p3208
F-0.8636913097682952
sS'CTTACT'
p3209
F-0.07756420543053553
sS'AGACGC'
p3210
F0.3157354100883775
sS'TACAAA'
p3211
F-0.2703212211273438
sS'AGACGA'
p3212
F-0.10254649351761265
sS'AAGTGA'
p3213
I0
sS'CCTCTG'
p3214
F0.16141289579486787
sS'AGGTGG'
p3215
F0.16169429177577038
sS'CCTCTC'
p3216
F0.3113706046859275
sS'AGGTGC'
p3217
F-0.2324492004567303
sS'CCTCTA'
p3218
F0.10593258010208945
sS'AGGTGA'
p3219
I0
sS'CTTACG'
p3220
F-0.5636685284868118
sS'TCCACA'
p3221
F-0.11468766361015359
sS'TTTTAG'
p3222
I0
sS'AGACGT'
p3223
F0.09569246133528345
sS'CTTACC'
p3224
F-0.33960612974279564
sS'ACATCA'
p3225
F-0.24812598619047083
sS'CTTACA'
p3226
F-0.137865610811934
sS'ACATCC'
p3227
F-0.01812219205761593
sS'AGGTGT'
p3228
F-0.154943057153385
sS'CCTCTT'
p3229
F0.3404827415997288
sS'GCGTGA'
p3230
I0
sS'CCCGGC'
p3231
F1.075403254778008
sS'CCCGGA'
p3232
F0.7527394416000575
sS'CCCGGG'
p3233
F1.3170904641733436
sS'TATGAA'
p3234
F-0.17517412911691824
sS'TGGAAT'
p3235
F-0.1405929805335601
sS'TAGGTG'
p3236
I0
sS'TTGTGC'
p3237
F-0.36916196598593165
sS'TATGAT'
p3238
F-0.04545620142180366
sS'TTGTGG'
p3239
F-0.26413575472752016
sS'CCCGGT'
p3240
F0.9026039025212685
sS'GGCGTG'
p3241
F0.5168089572311358
sS'TAGGTA'
p3242
I0
sS'GGTTTT'
p3243
F-0.18423083514122834
sS'TATCAC'
p3244
F-0.4094724102300039
sS'TGGAAA'
p3245
F-0.1128960802611585
sS'TGAGGA'
p3246
I0
sS'AAGAGG'
p3247
F0.2770782599456415
sS'TGAGGC'
p3248
I0
sS'AAGAGA'
p3249
F-0.04482002800729177
sS'AAGAGC'
p3250
F0.24026261329552326
sS'AAGCGT'
p3251
F0.494832179283784
sS'GCTTAG'
p3252
I0
sS'GCTTAC'
p3253
F0.26137774776578476
sS'GCTTAA'
p3254
I0
sS'TGATTC'
p3255
I0
sS'AAGCGC'
p3256
F0.45611111687752426
sS'AAGAGT'
p3257
F0.061688677825400134
sS'AAGCGA'
p3258
F0.24838330593286867
sS'AAGCGG'
p3259
F0.3915104074440908
sS'GCTTAT'
p3260
F0.17362150058046008
sS'GTTCGG'
p3261
F0.37740405122091397
sS'CTGCTA'
p3262
F-0.2329505987982456
sS'GCGTGT'
p3263
F0.09198879372893544
sS'CTGCTC'
p3264
F-0.04896366544498093
sS'ACTTCT'
p3265
F0.1024660282061556
sS'GACCGT'
p3266
F0.7178313785315729
sS'CTGCTG'
p3267
F0.05113468005107116
sS'CGGTCA'
p3268
F0.54297919159144
sS'GGTCGT'
p3269
F0.9875031315719349
sS'CGGTCC'
p3270
F0.7589983975470725
sS'CTAGAA'
p3271
F-0.029635127140672325
sS'CGGTCG'
p3272
F0.5994605475438883
sS'ACTTCG'
p3273
F0.3668879325357588
sS'GACCGC'
p3274
F0.6265252430415149
sS'TTTTGG'
p3275
F-0.6069608577439394
sS'ACTTCC'
p3276
F0.1488321719365415
sS'CTGCTT'
p3277
F-0.07589429874617246
sS'ACTTCA'
p3278
F-0.03950455380328432
sS'CTAGAT'
p3279
F-0.00864199064928153
sS'CACAAA'
p3280
F-0.5078352269214623
sS'CGGTCT'
p3281
F0.3495138364663361
sS'GGTCGC'
p3282
F0.992429019713244
sS'GGTCGA'
p3283
F0.4423673047161225
sS'CGTCGC'
p3284
F0.5785970508012352
sS'CAGCAT'
p3285
F0.08481603326984617
sS'TGAAGC'
p3286
I0
sS'CGTCGG'
p3287
F0.6856466951601715
sS'TGGTTG'
p3288
F-0.25508589591189906
sS'GCGTGC'
p3289
F0.28770668648813386
sS'TGCTCA'
p3290
F-0.242950675365822
sS'TTCATC'
p3291
F0.01501028946808774
sS'TGCTCC'
p3292
F0.045963108154838325
sS'TTCATA'
p3293
F-0.5029453031942898
sS'TTCATG'
p3294
F0.02556863309248235
sS'TGCTCG'
p3295
F-0.07680956669695393
sS'GTACAA'
p3296
F-0.14002519243941455
sS'CAGCAG'
p3297
F0.721304376218425
sS'TACACT'
p3298
F0.03677593357734232
sS'GCTTTG'
p3299
F0.3567573120046793
sS'CAGCAC'
p3300
F0.16773136941138408
sS'CAGCAA'
p3301
F0.299699801147391
sS'GGGAGT'
p3302
F0.632589965857997
sS'GTACAC'
p3303
F-0.4157176592741348
sS'TGATTT'
p3304
I0
sS'TTCATT'
p3305
F-0.3456305821151029
sS'GTAGCC'
p3306
F0.4853925591386488
sS'GCTGCC'
p3307
F0.678511001697164
sS'GCTGCA'
p3308
F0.23218935863830262
sS'AACTCT'
p3309
F-0.035127974245876346
sS'GCTGCG'
p3310
F0.8027434702261237
sS'TGGCCA'
p3311
F0.3228861829591017
sS'GTAGCA'
p3312
F0.21928521129151513
sS'TCATCT'
p3313
F0.050325471341734956
sS'TGCTCT'
p3314
F-0.2185727969727419
sS'AACTCA'
p3315
F-0.18655808018781866
sS'TGGCCT'
p3316
F0.4815267125042467
sS'AACTCC'
p3317
F0.1519945894191255
sS'GCTGCT'
p3318
F1.0985756371196456
sS'AACTCG'
p3319
F0.23128079244520536
sS'CTACAA'
p3320
F-0.3569056555252922
sS'GGATCC'
p3321
F0.5018108900506597
sS'TGAAGA'
p3322
I0
sS'AATATT'
p3323
F-0.4131501903970168
sS'GTTCGA'
p3324
F0.18934660708484477
sS'CAACCT'
p3325
F0.24465931069328076
sS'TGGCCG'
p3326
F0.3107719905568274
sS'GGCACG'
p3327
F0.28421835864231265
sS'GGAGGA'
p3328
F0.9968026164129871
sS'GGCACA'
p3329
F0.42336928848820704
sS'GACAAT'
p3330
F0.16441256173067034
sS'GGCACC'
p3331
F0.7178313785315729
sS'CAACCG'
p3332
F0.5518245988193441
sS'ACGACC'
p3333
F0.03285767676885227
sS'AATATG'
p3334
F-0.242307752255211
sS'CAACCC'
p3335
F0.13167522136142096
sS'TTAGGA'
p3336
F0.048671380255513444
sS'AATATC'
p3337
F-0.2854902015748595
sS'GACAAA'
p3338
F0.10608293883249173
sS'GGCACT'
p3339
F0.5100123477530565
sS'GACAAC'
p3340
F0.4535787803621291
sS'ACGACA'
p3341
F0.017963452824201896
sS'GACAAG'
p3342
F0.5072793062314169
sS'TGGCCC'
p3343
F0.2067847788642079
sS'GCAATC'
p3344
F0.2542586341267533
sS'GCAATA'
p3345
F-0.2403525712959839
sS'GAATTT'
p3346
F-0.31302360475800045
sS'TTGAAC'
p3347
F-0.03957987151574352
sS'CGATGG'
p3348
F0.3239188591425787
sS'GTTCCC'
p3349
F0.4100614279058378
sS'CGATGC'
p3350
F-0.04177594152805185
sS'GTAAAT'
p3351
F-0.4764789077586859
sS'CGATGA'
p3352
I0
sS'GAATTA'
p3353
F-0.3336802133714866
sS'GAATTC'
p3354
F0.05392601929103639
sS'GAATTG'
p3355
F0.0689490138489195
sS'GTAAAC'
p3356
F-0.3542019357899832
sS'CGATGT'
p3357
F-0.24133236749702205
sS'GTAAAA'
p3358
F-0.5340783608263293
sS'GTAAAG'
p3359
F-0.22723226760139162
sS'TCCCAG'
p3360
F0.21712561220242674
sS'GGATTT'
p3361
F0.11799650397544491
sS'GTGCGT'
p3362
F0.1488321719365415
sS'ACGCCG'
p3363
F0.82150184625757
sS'GGATTC'
p3364
F0.4177929232113189
sS'GGATTA'
p3365
F0.041324559961355214
sS'GGATTG'
p3366
F0.3299630666248966
sS'AGCGGC'
p3367
F0.5994605475438883
sS'ACGCCA'
p3368
F0.18057750829839153
sS'AAAGCC'
p3369
F0.29747808169353696
sS'TCTGTG'
p3370
F0.11416261644633263
sS'CTATCC'
p3371
F-0.04328653255329037
sS'GTCCCG'
p3372
F0.6240124425006583
sS'TACAAT'
p3373
F-0.13566558783324464
sS'AACCGG'
p3374
F0.24431592920656578
sS'CTCCTT'
p3375
F0.058738195748829825
sS'GGCGGA'
p3376
F1.0636250554394857
sS'AACCGC'
p3377
F0.5212104468292684
sS'AACCGA'
p3378
F0.1321646460889524
sS'GTGGGA'
p3379
F0.5887366821521152
sS'TACCCA'
p3380
F0.14114950603001328
sS'TCTGTT'
p3381
F0.018315384273741075
sS'AAAGCG'
p3382
F0.44884423263815576
sS'CTCCTG'
p3383
F-0.04978077665856006
sS'AACCGT'
p3384
F0.35599285877450443
sS'CTCCTA'
p3385
F-0.13919701811922022
sS'CTCCTC'
p3386
F0.4378622114494155
sS'GGCGGT'
p3387
F1.3330296652747915
sS'AACAAG'
p3388
F0.1374914030841158
sS'CCCACG'
p3389
F0.3314156143735399
sS'AACAAC'
p3390
F0.06347823512642292
sS'AACAAA'
p3391
F-0.41934344825767667
sS'TACTTC'
p3392
F0.04516001384736087
sS'AGCCTT'
p3393
F0.07189829129275015
sS'CCGATT'
p3394
F0.3039438853588195
sS'CCCACT'
p3395
F0.3016611232994194
sS'AACAAT'
p3396
F-0.088857189606286
sS'GACGCT'
p3397
F0.7777105017324057
sS'AGCGGT'
p3398
F0.6275746865209246
sS'CCGATA'
p3399
F0.26334734062868925
sS'AGCCTG'
p3400
F-0.015257808953046932
sS'AGCCTA'
p3401
F-0.3062015528202825
sS'AGCCTC'
p3402
F0.32993858829764955
sS'GTACCC'
p3403
F0.07082135640332766
sS'CTCCCG'
p3404
F0.5941317140388213
sS'TAGGCT'
p3405
I0
sS'ACGAAT'
p3406
F-0.1325097168950559
sS'CGCCTT'
p3407
F0.30474002578691434
sS'AGGCAT'
p3408
F0.008045784755654125
sS'CAGAGT'
p3409
F0.15102954660858992
sS'GCATCT'
p3410
F0.3701656422969947
sS'CTCCCA'
p3411
F0.27342366739585305
sS'ACGAAA'
p3412
F-0.2089123579308067
sS'CGCCTC'
p3413
F0.9740875635161323
sS'AGGCAA'
p3414
F0.10191967846067145
sS'CGCCTA'
p3415
F-0.20961795431981545
sS'AGGCAG'
p3416
F0.3303314135560506
sS'CGCCTG'
p3417
F0.6556834717827283
sS'ACGAAG'
p3418
F0.24621748072013203
sS'CAGAGG'
p3419
F0.46144404015033785
sS'GCATCC'
p3420
F0.3275172406364843
sS'GCATCA'
p3421
F0.1619071082066979
sS'CAGAGC'
p3422
F0.20000467526690136
sS'CGGCCA'
p3423
F0.7611936565527023
sS'CAGAGA'
p3424
F-0.0005864877729146731
sS'CGGCAC'
p3425
F0.5348613013692605
sS'CCTAGA'
p3426
F0.06475984657272554
sS'CCTAGC'
p3427
F0.3476485745500887
sS'TTTGCT'
p3428
F0.07662834580731426
sS'TAGCTC'
p3429
I0
sS'TGCGGT'
p3430
F0.2326591201572285
sS'CCTAGG'
p3431
F0.3043767514186788
sS'TAAGCA'
p3432
I0
sS'GTCTAG'
p3433
I0
sS'TGCGGC'
p3434
F0.6494345225057269
sS'TGCGGA'
p3435
F0.2126985149279073
sS'CCTAGT'
p3436
F0.15213952333734146
sS'TGCGGG'
p3437
F0.3202359113150539
sS'TAAGCG'
p3438
I0
sS'TGAGTT'
p3439
I0
sS'TAGCTG'
p3440
I0
sS'ATCGCT'
p3441
F0.8728355134341272
sS'TCTCGT'
p3442
F0.3097942164509724
sS'ATCGCC'
p3443
F0.946671529152569
sS'TGAGTG'
p3444
I0
sS'ATCGCA'
p3445
F0.4808312848425956
sS'TGAGTA'
p3446
I0
sS'ATCGCG'
p3447
F1.022106429008701
sS'TGAGTC'
p3448
I0
sS'AAGGTG'
p3449
F0.3528014712571537
sS'ACGGCT'
p3450
F0.7410250265351717
sS'CATCAT'
p3451
F-0.14402527988188965
sS'AAGGTA'
p3452
F-0.19558517449724092
sS'TTTATT'
p3453
F-0.767440082907558
sS'ACGGCA'
p3454
F0.7327917092074879
sS'CATCAC'
p3455
F-0.15116667944959888
sS'ACGGCC'
p3456
F0.54297919159144
sS'CATCAA'
p3457
F-0.2807112560676076
sS'CATCAG'
p3458
F0.03605295524573105
sS'ACGGCG'
p3459
F1.2483359945888595
sS'TCACCT'
p3460
F-0.043793293966569294
sS'TCTAAG'
p3461
F0.09400264244143879
sS'TCGTTT'
p3462
F-0.08853278764362553
sS'CGGAAT'
p3463
F0.15422122645739728
sS'CTCATG'
p3464
F0.14241503909325365
sS'TCACCG'
p3465
F0.6879567776382456
sS'TCACCA'
p3466
F0.13311638384041796
sS'TCACCC'
p3467
F0.0852864887101036
sS'CGGAAG'
p3468
F0.41950026974218296
sS'AATATA'
p3469
F-0.693809907817853
sS'CGGCCT'
p3470
F0.9477586247937831
sS'CGGAAC'
p3471
F0.2586548894303115
sS'CGGAAA'
p3472
F0.20852544044050905
sS'TAGCTT'
p3473
I0
sS'ATGGCG'
p3474
F0.8756420351244901
sS'TGTGTA'
p3475
F-0.6178438990514664
sS'ATGGCC'
p3476
F0.4004552801820273
sS'ATGGCA'
p3477
F0.30474002578691434
sS'TCCAAT'
p3478
F-0.07882485793227954
sS'ATGGCT'
p3479
F0.5994605475438883
sS'TGTGTT'
p3480
F-0.4553442878844217
sS'TTGTCG'
p3481
F0.2481981452044604
sS'GAACAT'
p3482
F-0.09456295859396406
sS'AGATTA'
p3483
F-0.4753808174596338
sS'AGATTC'
p3484
F-0.1344733727584605
sS'GAAACA'
p3485
F-0.23620584762098562
sS'AGATTG'
p3486
F-0.12203741603239464
sS'CTGAGT'
p3487
F-0.06913103789367274
sS'GAAACT'
p3488
F0.018496267421714865
sS'AGAATG'
p3489
F-0.024281200967950303
sS'AGAATA'
p3490
F-0.4730830216852823
sS'AGAATC'
p3491
F-0.16719000172998522
sS'CTGAGC'
p3492
F0.1500517057900182
sS'CTGAGA'
p3493
F0.01690437852433449
sS'CTGAGG'
p3494
F0.3836681127006418
sS'CATACC'
p3495
F-0.45613358750366656
sS'CATACA'
p3496
F-0.5570999784854025
sS'CATACG'
p3497
F-0.5739906153455845
sS'TCAAAT'
p3498
F-0.36263636571334756
sS'GTCCAT'
p3499
F-0.058204322179893644
sS'ACATAG'
p3500
I0
sS'CATACT'
p3501
F-0.1864801348924791
sS'GTCCAG'
p3502
F0.4198240077235573
sS'TCAAAG'
p3503
F0.034722527946283534
sS'CACGAG'
p3504
F0.5236740363960535
sS'GTCCAC'
p3505
F0.11161542743245274
sS'GCAATG'
p3506
F0.3419326446453796
sS'CGGCGG'
p3507
F0.46379794554381526
sS'TTGATG'
p3508
F-0.08918409551701924
sS'CTCATT'
p3509
F-0.12700353243379664
sS'CGGCGC'
p3510
F0.433834722166372
sS'TTGATC'
p3511
F-0.06393330253093447
sS'CGGCGA'
p3512
F0.5316981811817509
sS'TCCAAG'
p3513
F0.286683613030555
sS'CTATCT'
p3514
F-0.15870320602669183
sS'TTGATT'
p3515
F-0.423472295723227
sS'CGGCGT'
p3516
F0.716766495737557
sS'TATAAG'
p3517
F-0.34660832499685645
sS'TGACTT'
p3518
I0
sS'TCACAG'
p3519
F0.006077685031713268
sS'CGGTTA'
p3520
F0.2724667199313971
sS'GGTTTA'
p3521
F-0.014832150815948655
sS'CGGTTC'
p3522
F0.2402820365599959
sS'GCTGTT'
p3523
F0.5712134983822222
sS'TTTACA'
p3524
F-0.5579289576573718
sS'CGGTTG'
p3525
F0.35172399127145293
sS'GGTTTG'
p3526
F0.10507854173841771
sS'TATAAA'
p3527
F-0.7041318347432654
sS'CGTACG'
p3528
F-0.45018138387825446
sS'GCTGTG'
p3529
F0.603108031435585
sS'GCTGTC'
p3530
F0.5046905794298657
sS'CGGTTT'
p3531
F0.01782610676394888
sS'GCTGTA'
p3532
F0.23262459617120895
sS'GGGAGG'
p3533
F0.5842205809871515
sS'TCATAG'
p3534
I0
sS'TATGCG'
p3535
F0.21410966617987118
sS'TCTCAA'
p3536
F-0.04344283792906556
sS'AGGTTG'
p3537
F0.16484757627295496
sS'GCATTT'
p3538
F-0.06385585367082668
sS'AGGTTC'
p3539
F-0.05064763219965952
sS'AGGTTA'
p3540
F-0.4186369157166789
sS'ACTCCT'
p3541
F0.5716671501384587
sS'TTTTTC'
p3542
F-0.6603964987110993
sS'GAGGGC'
p3543
F0.6531946713790336
sS'TTTTTA'
p3544
F-1.1012623942522886
sS'TCCTCT'
p3545
F0.08898173571891532
sS'TTTTGT'
p3546
F-0.9954905320408307
sS'GAGGGG'
p3547
F0.3477949906267366
sS'TTAAAT'
p3548
F-0.6222879687031183
sS'AGGTTT'
p3549
F-0.22525299346023592
sS'ACATAT'
p3550
F-0.5533229913917102
sS'TTAAAC'
p3551
F-0.40248939354037977
sS'TTAAAA'
p3552
F-0.7565307325219035
sS'ACTCCG'
p3553
F0.790489931528933
sS'TTAAAG'
p3554
F-0.2524850339718057
sS'ACTCCA'
p3555
F0.3020493726854774
sS'TTTTTT'
p3556
F-1.438043868678661
sS'ACTCCC'
p3557
F0.385371338229772
sS'CTGTAA'
p3558
I0
sS'GTCACG'
p3559
F0.4938326518416573
sS'CTGTAC'
p3560
F-0.18418204129785148
sS'GCAACT'
p3561
F0.43553895384409547
sS'GCAATT'
p3562
F0.09152534541000619
sS'CTGTAG'
p3563
I0
sS'GTCACA'
p3564
F0.062268705848333814
sS'GCAACG'
p3565
F0.5429791915914399
sS'GTCACT'
p3566
F0.37146983091043906
sS'TAGGCG'
p3567
I0
sS'GCAACC'
p3568
F0.3172001483466512
sS'CTGTAT'
p3569
F-0.38003208048380616
sS'GCAACA'
p3570
F0.137026334294519
sS'TAGGCC'
p3571
I0
sS'TGGTTC'
p3572
F-0.17535150076810874
sS'ATTCAT'
p3573
F-0.44687495948301004
sS'TCCCAC'
p3574
F-0.04529251525088898
sS'GCGATT'
p3575
F0.7288577827596164
sS'TCGTGT'
p3576
F-0.12335499950580865
sS'TGAATT'
p3577
I0
sS'GTCTCT'
p3578
F0.1761319114378155
sS'TCCGTG'
p3579
F0.2297147395104472
sS'ATTCAG'
p3580
F0.011049849169439872
sS'ATTCAA'
p3581
F-0.2659250882193819
sS'ATTCAC'
p3582
F-0.2627325403180821
sS'GTCTCC'
p3583
F0.3564224988575938
sS'GTCTCA'
p3584
F0.03705437902157303
sS'GCGATG'
p3585
F0.8209438831867278
sS'GTCTCG'
p3586
F0.2972520043943643
sS'GCGATA'
p3587
F0.6357332448283388
sS'TCGTGC'
p3588
F-0.06645439760531639
sS'GCGATC'
p3589
F0.5607079585518717
sS'CGATTG'
p3590
F-0.013323309175847202
sS'TCTACA'
p3591
F-0.16748436284273552
sS'GAAGGA'
p3592
F0.6753844928850944
sS'CGATTC'
p3593
F-0.07277093065411092
sS'CGATTA'
p3594
F-0.38946618875304057
sS'CAATCT'
p3595
F-0.0390811834084149
sS'GGAACA'
p3596
F0.30923121867537595
sS'GGAACG'
p3597
F0.4573158180158949
sS'TGACGA'
p3598
I0
sS'TACTGC'
p3599
F-0.14072264433180393
sS'CGATTT'
p3600
F-0.4911750846428657
sS'GAAGGT'
p3601
F0.7193256927831214
sS'CTCGCT'
p3602
F0.6724184294264164
sS'CAATCG'
p3603
F0.08757718656501386
sS'CAATCA'
p3604
F-0.38212811089267185
sS'CAATCC'
p3605
F-0.07953306938578
sS'TCCTGA'
p3606
I0
sS'AGTCCA'
p3607
F0.15714428177731643
sS'TCCTGC'
p3608
F-0.11434988837873576
sS'AGTCCC'
p3609
F0.09689217061174638
sS'ACTAAA'
p3610
F-0.3342162013129458
sS'TCCTGG'
p3611
F-0.0915912121278455
sS'ACTAAC'
p3612
F-0.31603770701040257
sS'TAACGC'
p3613
I0
sS'CAGCTG'
p3614
F-0.6070092649000361
sS'CAGCTA'
p3615
F-0.33467488237853954
sS'CAGCTC'
p3616
F0.4765867025873219
sS'ACTAAT'
p3617
F-0.34000255543635727
sS'AGTCCT'
p3618
F0.3880772316056968
sS'TCCTGT'
p3619
F-0.585648113089549
sS'TAATGT'
p3620
I0
sS'CAGCTT'
p3621
F0.32189242307827237
sS'GGTTAG'
p3622
I0
sS'TAACGT'
p3623
I0
sS'ACGGAC'
p3624
F0.40005629578841345
sS'GTACTT'
p3625
F-0.19251194394153873
sS'CGACAT'
p3626
F-0.04886163455483629
sS'TTGTTC'
p3627
F-0.2848339882718584
sS'CCGAGG'
p3628
F1.0201004463111025
sS'CCGAGA'
p3629
F0.39036902838528165
sS'ACGGAA'
p3630
F0.3223659889873905
sS'CCGAGC'
p3631
F0.7203059976594283
sS'CCGCGT'
p3632
F0.54297919159144
sS'CGACAC'
p3633
F0.1401866801249904
sS'CGACAA'
p3634
F0.017445451790425195
sS'CGACAG'
p3635
F0.11744497109317649
sS'GTACTA'
p3636
F-0.49933069450305845
sS'CCGCGC'
p3637
F0.8897666778160964
sS'ACGGAG'
p3638
F0.5797818394991887
sS'CCGCGA'
p3639
F0.3668879325357588
sS'TACGCA'
p3640
F0.1965490023691688
sS'CCGCGG'
p3641
F0.9311593629743214
sS'TTGTTT'
p3642
F-0.6467799794477193
sS'GCATAT'
p3643
F-0.09356325725335883
sS'TCCGTT'
p3644
F0.18510465908061913
sS'AGGAAC'
p3645
F0.17787707476848658
sS'AATAAC'
p3646
F-0.20539998615812052
sS'AATAAA'
p3647
F-0.6891085788331173
sS'AATAAG'
p3648
F-0.24051728912138676
sS'TACTAA'
p3649
I0
sS'TGGAAG'
p3650
F0.2840724018330399
sS'AATAAT'
p3651
F-0.41189136493044426
sS'ACGGTG'
p3652
F0.8509899606826304
sS'CCAACC'
p3653
F0.2788331647757884
sS'CCAACA'
p3654
F0.1405298409254751
sS'TTATGC'
p3655
F-0.5135683627426475
sS'CCAACG'
p3656
F0.3611734490113294
sS'GGGATT'
p3657
F0.40137835002670863
sS'CGCCGC'
p3658
F0.8440091872554212
sS'AGTAAA'
p3659
F-0.4936955074873184
sS'CGCCGA'
p3660
F0.6627167345139322
sS'AGTAAC'
p3661
F-0.11120381305011119
sS'CGCCGG'
p3662
F0.66791792819974
sS'GAGTAA'
p3663
I0
sS'AGTAAG'
p3664
F-0.2561904094317104
sS'CTCAGG'
p3665
F0.06585793687177763
sS'CTCAGC'
p3666
F0.1255608295235534
sS'CCAACT'
p3667
F0.14361759578460825
sS'GAGTAT'
p3668
F0.34840452684174567
sS'GCTTCA'
p3669
F0.3154929906113027
sS'GTGTAG'
p3670
I0
sS'TCGAGC'
p3671
F0.5084683404632762
sS'AGTAAT'
p3672
F-0.22902917728515249
sS'GTGTAC'
p3673
F0.06222365221668349
sS'CGCCGT'
p3674
F0.847705332815385
sS'GTGGCA'
p3675
F0.4134489283800349
sS'CATATT'
p3676
F-0.5325979301873596
sS'CTCGGA'
p3677
F0.7584478445700208
sS'CTCGGC'
p3678
F0.819185603530389
sS'GCCGCC'
p3679
F1.5627875849449926
sS'GCCGCA'
p3680
F1.0037100301229331
sS'GCCGCG'
p3681
F1.3620354297413466
sS'TATTGA'
p3682
I0
sS'ACACTT'
p3683
F-0.0641623747479079
sS'CATATG'
p3684
F-0.26603212189342196
sS'TCGCTC'
p3685
F0.28187714282741005
sS'CATATC'
p3686
F-0.36320187237764545
sS'CATATA'
p3687
F-0.7696632105165502
sS'GTCAGC'
p3688
F0.14422053143872246
sS'TACTAC'
p3689
F0.10124209310399215
sS'ACACTC'
p3690
F-0.018903186556683816
sS'ACACTA'
p3691
F-0.3014132520338081
sS'ACACTG'
p3692
F-0.08072272467536527
sS'GCCGCT'
p3693
F1.3695938259116838
sS'ACCGGA'
p3694
F1.0459196069295902
sS'AAATAA'
p3695
I0
sS'ACCGGC'
p3696
F1.0938866604720212
sS'AAATAC'
p3697
F-0.19537751520520516
sS'CTTTAA'
p3698
I0
sS'ACCGGG'
p3699
F1.0548625525703144
sS'AAATAG'
p3700
I0
sS'AACTTA'
p3701
F-0.48615601536377295
sS'CAGGTA'
p3702
F-1.0194363202767234
sS'AACTTC'
p3703
F0.060047890595146536
sS'CAGGTC'
p3704
F0.02732380587325224
sS'CACGAC'
p3705
F0.5548784148911479
sS'CACGAA'
p3706
F0.0003563881153452643
sS'CAGGTG'
p3707
F-0.031052076136278767
sS'CTTTAT'
p3708
F-0.40768885748958666
sS'AATCCC'
p3709
F0.005811701264413847
sS'AATCCA'
p3710
F-0.023196940382044694
sS'AAATAT'
p3711
F-0.6278010070549555
sS'AATCCG'
p3712
F0.339735686492144
sS'CACGAT'
p3713
F0.17856221706306596
sS'CAGGTT'
p3714
F0.0033532223674911667
sS'AACTTT'
p3715
F-0.34094553213156503
sS'TCTGTC'
p3716
F0.05500000928356929
sS'GGGATA'
p3717
F0.3085961619480256
sS'GGGATC'
p3718
F0.513569562274811
sS'GGGTGT'
p3719
F0.2647767258418946
sS'GGAGAT'
p3720
F0.7336969449248099
sS'GATGCT'
p3721
F0.8567140688995709
sS'CGCAGT'
p3722
F0.27973775681685864
sS'GAGTCG'
p3723
F0.5750450041582389
sS'GAGCCT'
p3724
F0.7888801015471008
sS'GGAGAC'
p3725
F0.681023765243791
sS'GGCGGC'
p3726
F1.4135131446276608
sS'GGAGAA'
p3727
F0.4820948716574691
sS'GGGTGC'
p3728
F0.21069150219701677
sS'GGAGAG'
p3729
F0.6755577222115308
sS'TGGAAC'
p3730
F0.1488321719365415
sS'GGGTGG'
p3731
F0.7121215906917935
sS'GAGCCA'
p3732
F0.5848713529196172
sS'CGCAGG'
p3733
F-0.025222532475554976
sS'GATGCG'
p3734
F1.1217157543367786
sS'CGCAGA'
p3735
F0.26215258201574576
sS'GATGCA'
p3736
F0.5367989588365251
sS'CGCAGC'
p3737
F0.12021559919437026
sS'GATGCC'
p3738
F0.9345496571773811
sS'CGGATT'
p3739
F0.09033170625497824
sS'GGTAGT'
p3740
F0.410753069418729
sS'ACCCCT'
p3741
F0.37532110007262154
sS'GCCAAT'
p3742
F0.35287721809294414
sS'GGCGGG'
p3743
F0.875978393330463
sS'AGAAGT'
p3744
F-0.16341753207168663
sS'ACCCCA'
p3745
F-0.051869706820757484
sS'GGTAGA'
p3746
F0.26979509717943184
sS'ACCCCC'
p3747
F-0.05064763219965957
sS'CGGATG'
p3748
F0.5062017940969026
sS'GCCAAG'
p3749
F0.7438195604832797
sS'CGGATA'
p3750
F0.15747161006988555
sS'ACCCCG'
p3751
F0.22555877973928948
sS'CGGATC'
p3752
F0.35699469193364974
sS'AGAAGA'
p3753
F-0.2292091118185269
sS'AGAAGC'
p3754
F0.015203173197398735
sS'GCAAGA'
p3755
F0.1251853296321989
sS'AGAAGG'
p3756
F0.0734110747622235
sS'CACTCC'
p3757
F0.19079667348007756
sS'CACTCA'
p3758
F-0.36349053605188414
sS'CACTCG'
p3759
F0.16731557763055468
sS'TGCGTT'
p3760
F-0.21656681427514324
sS'TCAGCT'
p3761
F0.06008649669390218
sS'AGCTTT'
p3762
F-0.28039115180348145
sS'CCCCGG'
p3763
F0.7026800344589519
sS'TGCGTA'
p3764
F-0.4031454276257053
sS'CCCCGC'
p3765
F0.5265887754032706
sS'CACTCT'
p3766
F-0.18134694648349545
sS'AGCTTC'
p3767
F0.04304964438207098
sS'AGCTTA'
p3768
F-0.2525180187803814
sS'AGCTTG'
p3769
F0.22303447181294705
sS'TTAGCT'
p3770
F-0.0069365105144465885
sS'TTAGCC'
p3771
F0.2679626282923768
sS'GCACTG'
p3772
F0.3269404882517146
sS'TTAGCA'
p3773
F-0.10571408804451041
sS'GACCAT'
p3774
F0.1379443661548019
sS'TTAGCG'
p3775
F0.2466544909450785
sS'TACCGG'
p3776
F0.48910381080858545
sS'TCATAT'
p3777
F-0.6246644256157936
sS'ATAGGT'
p3778
F-0.31694832867120276
sS'ATAAGG'
p3779
F-0.17429442357702868
sS'TGTGCT'
p3780
F0.07231596638160806
sS'AAGGGC'
p3781
F0.32147254083633575
sS'ATAAGC'
p3782
F-0.23578851664149003
sS'AAGGGA'
p3783
F0.36243359110950885
sS'ATAAGA'
p3784
F-0.49092471262534965
sS'CCAGAC'
p3785
F0.47502592530664633
sS'TCTGTA'
p3786
F-0.19210578974441242
sS'CCAGAA'
p3787
F0.3061900921821471
sS'CCAGAG'
p3788
F0.690467774994842
sS'GCAAGT'
p3789
F0.11353526723287828
sS'TGTGCG'
p3790
F0.3356302388053167
sS'ATAAGT'
p3791
F-0.4894415738841136
sS'ATAGGG'
p3792
F0.1710526152843203
sS'TGTGCC'
p3793
F0.08642009578666669
sS'ATAGGA'
p3794
F0.001503957819443981
sS'TGTGCA'
p3795
F-0.18479437059478326
sS'ATAGGC'
p3796
F0.022392243090687266
sS'GCTCGC'
p3797
F0.9171162855908529
sS'TAAGTT'
p3798
I0
sS'TTTGCG'
p3799
F0.20036536002587357
sS'CCAGAT'
p3800
F0.4516816484206635
sS'AGACAA'
p3801
F-0.20314567485098695
sS'GACGCA'
p3802
F0.7074264694834136
sS'AGACAC'
p3803
F-0.2915979528351321
sS'TCCATT'
p3804
F-0.10823349755168526
sS'AGACAG'
p3805
F0.05725776510986006
sS'GCTTTT'
p3806
F0.004694115269702168
sS'TTTTCT'
p3807
F-0.6693930337956717
sS'CGCTGT'
p3808
F0.025021682900372506
sS'GACGCC'
p3809
F0.9895623790616409
sS'TCAAGA'
p3810
F-0.09578226498470796
sS'CGTGGG'
p3811
F0.5724341709297157
sS'CTATAG'
p3812
I0
sS'AGACAT'
p3813
F-0.2821686214684272
sS'CGTGGA'
p3814
F0.8097950867243195
sS'TTTTCG'
p3815
F-0.4013172079923288
sS'CCCACA'
p3816
F-0.01448297470308591
sS'CGCTGC'
p3817
F0.24793955961664632
sS'TTTTCC'
p3818
F-0.6141904171274625
sS'TTTTCA'
p3819
F-0.6693438688042288
sS'CGCTGG'
p3820
F0.3260516785643537
sS'TATGGA'
p3821
F0.32661276354745
sS'TATGGC'
p3822
F0.21144847931073618
sS'CGTAGG'
p3823
F0.16731557763055468
sS'CCCACC'
p3824
F0.3244294935128738
sS'TATGGG'
p3825
F0.13580608248305545
sS'CGTAGC'
p3826
F0.11060426403759044
sS'TACCGT'
p3827
F0.5414197842359187
sS'TGGACT'
p3828
F0.12243139217393015
sS'CGTAGT'
p3829
F0.06036046496055982
sS'GCTCGA'
p3830
F0.4009070198251898
sS'TATGGT'
p3831
F0.1149667168091726
sS'TGGACA'
p3832
F0.02335970725086189
sS'TGGACC'
p3833
F0.1506794502720951
sS'TGGACG'
p3834
F0.2943372653871471
sS'CCGGTT'
p3835
F0.6837814332439242
sS'GACCAA'
p3836
F0.04649127994409204
sS'GCTTGA'
p3837
I0
sS'TGAGAC'
p3838
I0
sS'GCTTGC'
p3839
F0.3519622546058632
sS'TGAGAA'
p3840
I0
sS'TGAGAG'
p3841
I0
sS'GCTTGG'
p3842
F0.4990486636849475
sS'CCTGTT'
p3843
F0.3324258155693365
sS'CCGGTG'
p3844
F1.1034741244777464
sS'CCGGTC'
p3845
F0.7525934847907847
sS'CCGGTA'
p3846
F0.6727168110815087
sS'CCTGTC'
p3847
F0.2635438095222925
sS'CCTGTA'
p3848
F0.06252999352285012
sS'CCTGTG'
p3849
F0.509326799888679
sS'GCTTGT'
p3850
F0.2249722914909375
sS'TGAGAT'
p3851
I0
sS'TCCGAA'
p3852
F0.2686834491747036
sS'GGTTGT'
p3853
F0.08933903272130048
sS'TCCTCA'
p3854
F0.020001754234344787
sS'TATCAG'
p3855
F-0.21412945605262604
sS'TATTGC'
p3856
F-0.42204040886407695
sS'TAGCGT'
p3857
I0
sS'GGTTGG'
p3858
F0.3566502358748225
sS'GGTTGA'
p3859
I0
sS'TTCACG'
p3860
F0.12856767355913606
sS'GGTTGC'
p3861
F0.09624056586549846
sS'GGAAAC'
p3862
F0.3405038207863516
sS'TCCCGC'
p3863
F0.9004905432078695
sS'GTAACG'
p3864
F-0.014661659948109513
sS'CAGCGT'
p3865
F0.8440091872554213
sS'GTAACC'
p3866
F-0.13644001052348828
sS'CGTTTT'
p3867
F-0.4519104328969842
sS'ATTCTC'
p3868
F0.0066477717547728235
sS'ATTCTA'
p3869
F-0.2810225360745493
sS'ATTCTG'
p3870
F-0.16597873732361756
sS'TCATTT'
p3871
F-0.5256387118834276
sS'CAGCGA'
p3872
F0.2734662473735238
sS'CAGCGC'
p3873
F1.0147054144243963
sS'TGCTAG'
p3874
I0
sS'CAGCGG'
p3875
F0.6261631800927389
sS'CCTTGT'
p3876
F-0.06552358721442228
sS'TCATTC'
p3877
F-0.22638037229243396
sS'CGTTTG'
p3878
F-0.19401031992067752
sS'CGTTTA'
p3879
F-0.21977314391838912
sS'ATTCTT'
p3880
F-0.12073365857701972
sS'CGTTTC'
p3881
F-0.023628058057071855
sS'TGGCAA'
p3882
F0.08829880592002289
sS'CCGATC'
p3883
F0.4225537117566829
sS'TGGCAG'
p3884
F-0.014682604438572095
sS'GCTGAG'
p3885
F0.9258355544263793
sS'GCTGAA'
p3886
F0.4114072341411098
sS'GCTGAC'
p3887
F0.5717509341614646
sS'TGGCAT'
p3888
F-0.05485499080890355
sS'GCTGAT'
p3889
F0.6712756642159525
sS'CCGATG'
p3890
F0.7095374582217818
sS'GGCCGC'
p3891
F0.9004905432078695
sS'GAACTT'
p3892
F0.18766095962721902
sS'GGCCGA'
p3893
F0.6719206706534139
sS'GGCAAT'
p3894
F0.3070596425180747
sS'CTGATT'
p3895
F-0.28415851948307724
sS'CCATCG'
p3896
F0.6984839198653437
sS'CTAAAT'
p3897
F-0.5465947764984007
sS'CCATCC'
p3898
F0.19079667348007756
sS'CCATCA'
p3899
F0.1372774177535893
sS'CTGATC'
p3900
F-0.08138510450725184
sS'CTGATA'
p3901
F-0.41760349587890383
sS'GAGTTT'
p3902
F0.25256817193775283
sS'CTGATG'
p3903
F0.050428446209085924
sS'GGCAAA'
p3904
F0.33359676580938813
sS'CTAAAG'
p3905
F-0.1401461896586986
sS'CCATCT'
p3906
F0.2841153353985835
sS'CTAAAC'
p3907
F-0.2984117817488016
sS'CTAAAA'
p3908
F-0.5089481651059022
sS'GACACC'
p3909
F0.45948729494932894
sS'GACACA'
p3910
F0.18494092883102545
sS'GACACG'
p3911
F0.5319438923520412
sS'GCGCCT'
p3912
F1.1159368012150952
sS'TTCACC'
p3913
F0.12884182940696337
sS'TAGCGA'
p3914
I0
sS'TACGAG'
p3915
F0.5887366821521152
sS'TACGAC'
p3916
F0.5222239700008207
sS'GACACT'
p3917
F0.4122468049115852
sS'GGCGAT'
p3918
F0.8326601429328645
sS'TGTTAC'
p3919
F-0.5234729573457211
sS'ACGCTG'
p3920
F0.329099371646359
sS'ACGCTA'
p3921
F-0.07804863881250232
sS'ACGCTC'
p3922
F0.19079667348007764
sS'TCGATG'
p3923
F0.2461251365815951
sS'TCGAGG'
p3924
F0.5215485507637473
sS'TCGATC'
p3925
F0.1057858837717288
sS'ACGCTT'
p3926
F0.3161343944819914
sS'TCTGGG'
p3927
F0.34840452684174567
sS'GCATTG'
p3928
F0.22646563845657008
sS'GAACTG'
p3929
F0.2966003996481164
sS'TCGATT'
p3930
F0.00845646514739477
sS'TCGGCA'
p3931
F0.3321258262765469
sS'AGGCAC'
p3932
F0.0009171299387629679
sS'TTTTGA'
p3933
I0
sS'AACCAA'
p3934
F-0.2963970195915232
sS'TGCCGG'
p3935
F0.534115731260135
sS'AACCAC'
p3936
F-0.15092930468937457
sS'ACGAAC'
p3937
F-0.13043670827219062
sS'AACCAG'
p3938
F0.10565248045877602
sS'TGCCGA'
p3939
F0.09804262024317892
sS'TTGGAC'
p3940
F0.3533453592204157
sS'TCTGGA'
p3941
F0.517969095309578
sS'GAGTTC'
p3942
F0.43306809446173683
sS'TGCCGT'
p3943
F0.3075150798416864
sS'AACCAT'
p3944
F-0.25985452326923425
sS'AACAGA'
p3945
F-0.28255584548339935
sS'ACGTCG'
p3946
F0.6949014178853335
sS'AACAGC'
p3947
F0.059994662910706445
sS'ACGTCC'
p3948
F-0.09033849346696443
sS'AACAGG'
p3949
F-0.09608567112261143
sS'ACGTCA'
p3950
F-0.14340168543655826
sS'CCCAAG'
p3951
F0.4570025872183979
sS'GTCCCT'
p3952
F0.5992250937664196
sS'GACGAA'
p3953
F0.6344941727127903
sS'CCCAAC'
p3954
F0.19906919944606746
sS'CCCAAA'
p3955
F-0.1528105244891792
sS'ACGTCT'
p3956
F-0.008122115490039447
sS'GGGAGA'
p3957
F0.42678719255666014
sS'AACAGT'
p3958
F-0.036608158080366375
sS'GGGAGC'
p3959
F0.7614082819496591
sS'CCCAAT'
p3960
F0.13764371229585554
sS'GACGAT'
p3961
F0.7224554598485332
sS'GGGCGC'
p3962
F0.7348647178303531
sS'GGGCGA'
p3963
F0.8951617097028024
sS'GGGCGG'
p3964
F0.7093106133579651
sS'TCTCTT'
p3965
F-0.13001197035872436
sS'TGGGGG'
p3966
F0.14940398832185248
sS'GTACAG'
p3967
F0.010414537778938554
sS'TCATAC'
p3968
F-0.3199034696025914
sS'CAGAAT'
p3969
F0.009539573783656947
sS'ACGACT'
p3970
F0.28600022267411684
sS'TCTCTC'
p3971
F-0.155013771878267
sS'TCTCTA'
p3972
F-0.2943361913179412
sS'TCTCTG'
p3973
F-0.20669614673792663
sS'GGGCGT'
p3974
F0.6477145421114531
sS'CAGAAA'
p3975
F-0.07655020898133107
sS'CAGAAC'
p3976
F0.1664069194555262
sS'ACGACG'
p3977
F0.7053444261403636
sS'CAGAAG'
p3978
F0.40485045476612
sS'CACTTT'
p3979
F-0.46709410257303674
sS'CCTAAT'
p3980
F0.10787685787305086
sS'GCATTC'
p3981
F0.2708817585259469
sS'GTCATT'
p3982
F0.05833749818564661
sS'TGCCCC'
p3983
F-0.03451260824578534
sS'CACTTG'
p3984
F-0.07498732230147945
sS'CCTAAC'
p3985
F0.15722932583380914
sS'CCTAAA'
p3986
F0.061111501847315994
sS'CACTTC'
p3987
F-0.15539548094209749
sS'CCTAAG'
p3988
F0.34271889977397096
sS'CACTTA'
p3989
F-0.5639638367148088
sS'GTCCCA'
p3990
F0.4323894812921911
sS'GTCCCC'
p3991
F0.3804607397250327
sS'AAGATT'
p3992
F0.08922058338689569
sS'ATCGAT'
p3993
F0.3083113920091706
sS'GACTCG'
p3994
F0.42124559485835145
sS'CTCATC'
p3995
F0.2338313057052794
sS'GACTCC'
p3996
F0.4497253172821056
sS'CTCATA'
p3997
F-0.3278757969642366
sS'GACTCA'
p3998
F0.15503549964914337
sS'AAGATA'
p3999
F-0.19073011480929872
sS'AAGATC'
p4000
F0.24210738004208443
sS'AAGATG'
p4001
F0.211517035285501
sS'GACTCT'
p4002
F0.38635041230519096
sS'ATCGAG'
p4003
F0.5144906537800026
sS'TTGAGA'
p4004
F-0.09747609172615385
sS'ATCGAA'
p4005
F0.15029545866272626
sS'ATCGAC'
p4006
F0.6189314675088663
sS'ATATTT'
p4007
F-0.6764065769774851
sS'ACGGTA'
p4008
F0.0372127554222476
sS'GGACTC'
p4009
F0.5492281408684416
sS'ATAGTT'
p4010
F-0.3625062481471077
sS'CTACCA'
p4011
F-0.02240296702776566
sS'TACTGT'
p4012
F-0.2499669754566337
sS'ATATTC'
p4013
F-0.3187381418135975
sS'ATATTA'
p4014
F-0.7900529724246966
sS'ATATTG'
p4015
F-0.3324252519697596
sS'ATAGTA'
p4016
F-0.4712052059098396
sS'ATAGTC'
p4017
F-0.22024638086230794
sS'TACTGG'
p4018
F0.15572246193836875
sS'ATAGTG'
p4019
F-0.09002993609561666
sS'GATCGA'
p4020
F0.24774338654311429
sS'CAGGCA'
p4021
F0.27494945603038423
sS'AGGAAG'
p4022
F0.3959261406925678
sS'CATCCG'
p4023
F0.4955545416633019
sS'AGGAAA'
p4024
F-0.017496632738939116
sS'CATCCA'
p4025
F0.04088135174234339
sS'CAGGCG'
p4026
F0.8474423630938153
sS'CATCCC'
p4027
F0.16809678338490092
sS'TTATGA'
p4028
I0
sS'ATAGAA'
p4029
F-0.30125025916948045
sS'CGGAGT'
p4030
F0.5299167187521983
sS'TTATGG'
p4031
F-0.3805944980814329
sS'CATCCT'
p4032
F0.397129460621158
sS'AGGAAT'
p4033
F0.03235521157246314
sS'CAGGCT'
p4034
F0.8001314493429447
sS'ACGGAT'
p4035
F0.4154383232806041
sS'CGGAGA'
p4036
F0.3448936388295909
sS'CGGAGC'
p4037
F0.4876305545504507
sS'TTATGT'
p4038
F-0.8315192007531147
sS'CAGGCC'
p4039
F0.9384997261400647
sS'CGGAGG'
p4040
F0.7790683803224067
sS'ATGGAA'
p4041
F0.2190975236052093
sS'ATGGAC'
p4042
F0.46890893370808084
sS'ATGGAG'
p4043
F0.6063085143678754
sS'CGCTTG'
p4044
F0.1289096826188667
sS'CGCTTA'
p4045
F-0.05908079973652236
sS'CGCTTC'
p4046
F0.19662621714080145
sS'TGAACA'
p4047
I0
sS'ATGGAT'
p4048
F0.4366456995002004
sS'TTTGCA'
p4049
F-0.17738895744580918
sS'CGCTTT'
p4050
F-0.21377391409097315
sS'GCCGTG'
p4051
F0.916436106153615
sS'GATCGT'
p4052
F0.6231055837833777
sS'TTTGCC'
p4053
F0.08874492253028649
sS'TTGTGA'
p4054
I0
sS'GAAAAG'
p4055
F0.059349314644875244
sS'GAAAAC'
p4056
F-0.07177507036472792
sS'ATAGAT'
p4057
F-0.1529473911664895
sS'GAAAAA'
p4058
F-0.37100013783062963
sS'GTTCCT'
p4059
F0.5031920331486335
sS'TAAGTA'
p4060
I0
sS'TAGGGC'
p4061
I0
sS'ACGGTT'
p4062
F0.35407595677579323
sS'GAAAAT'
p4063
F-0.17742840779172392
sS'ACAAGG'
p4064
F-0.08555085770687297
sS'ACAAGA'
p4065
F-0.35825504195138597
sS'ACAAGC'
p4066
F0.0468900977957976
sS'ACACGT'
p4067
F-0.12416910012719613
sS'CTGCGT'
p4068
F0.2198348816368866
sS'GACGTC'
p4069
F0.6515275120115707
sS'GCGGAG'
p4070
F1.3866963258893112
sS'CATAAG'
p4071
F-0.2885015004938594
sS'GCGGAA'
p4072
F0.8000352494351634
sS'CATAAA'
p4073
F-0.6083629576280829
sS'GCCAAC'
p4074
F0.5467474970721319
sS'CATAAC'
p4075
F-0.3118061158259486
sS'ACACGC'
p4076
F0.073036521498901
sS'ACAAGT'
p4077
F-0.28269029658449085
sS'ACACGA'
p4078
F-0.26320078239244715
sS'ACACGG'
p4079
F0.2918232526829661
sS'CATAAT'
p4080
F-0.512163813588746
sS'GCGGAT'
p4081
F0.8569741644197888
sS'GCACAT'
p4082
F-0.016552279306045695
sS'CTGCGG'
p4083
F0.3270164204980666
sS'CTGCGA'
p4084
F-0.043286532553290465
sS'CTGCGC'
p4085
F-0.09250455522347212
sS'CGGCAA'
p4086
F0.3943261808826984
sS'ACCGGT'
p4087
F0.8497943562883448
sS'CGGCAG'
p4088
F0.34055899381340965
sS'GACGCG'
p4089
F1.54297919159144
sS'CCTCCT'
p4090
F1.0090561262385296
sS'TGTTGA'
p4091
I0
sS'CGGCAT'
p4092
F0.37444107042620467
sS'CCTCCC'
p4093
F0.7619229505643892
sS'CCTCCA'
p4094
F0.7770623976248081
sS'CACGCC'
p4095
F0.5607079585518717
sS'CCTCCG'
p4096
F1.0684051258856575
s.