(dp0
S'GAACGT'
p1
F-0.19837381935117887
sS'CTTCTT'
p2
F-0.21253232384015164
sS'CACCCT'
p3
F-0.0019302136563065138
sS'GAACGG'
p4
F0.36115765154630686
sS'GAACGC'
p5
F0.05868959337000816
sS'GAACGA'
p6
F0.50027135738413
sS'CACCCA'
p7
F-0.09212224643058736
sS'CTTCTA'
p8
F-0.06400007305443266
sS'CACCCC'
p9
F0.08249710372712041
sS'CTTCTC'
p10
F0.20222321614676428
sS'CACCCG'
p11
F0.008255506953963805
sS'CTTCTG'
p12
F0.007261065522867935
sS'CGTGTG'
p13
F0.19247550965950525
sS'TAAGGT'
p14
I0
sS'CGTGTC'
p15
F0.20195571106783966
sS'CGTGTA'
p16
F-0.03243937611494848
sS'GGAAAT'
p17
F-0.19418348860284332
sS'TAAGGG'
p18
I0
sS'CGTGTT'
p19
F-0.43987725696400526
sS'TAAGGC'
p20
I0
sS'TAAGGA'
p21
I0
sS'TCACTG'
p22
F-0.2006021181436774
sS'GTCAAA'
p23
F0.20423477361933337
sS'CCCGCT'
p24
F0.29196780476714634
sS'GTCAAG'
p25
F0.5441524028219034
sS'CTGTCC'
p26
F0.527633141810389
sS'TCAGAG'
p27
F0.4053533313442465
sS'CTGTCA'
p28
F0.03581882210721151
sS'CTGTCG'
p29
F0.1774726169579771
sS'GTATCT'
p30
F-0.17919050297883943
sS'TCAGAA'
p31
F-0.07438022888719178
sS'GTCAAT'
p32
F0.0952359447333439
sS'GTATCA'
p33
F-0.2193077261868218
sS'GTATCC'
p34
F0.09032244123907689
sS'GTATCG'
p35
F0.037243997755657225
sS'CTGTCT'
p36
F-0.1265762003499802
sS'GGTGTC'
p37
F-0.005638984973430973
sS'GGTGTA'
p38
F-0.31597436878677054
sS'GGTGTG'
p39
F0.28156504436737906
sS'TATCCT'
p40
F0.17019911494835294
sS'CCGGGG'
p41
F0.15726923086969002
sS'TTCTGT'
p42
F-0.7204475699952867
sS'ATTCCT'
p43
F-0.003799154601484536
sS'CCGGGC'
p44
F0.6154340679517064
sS'CCGGGA'
p45
F0.44950986091909784
sS'TATCCA'
p46
F-0.16664984874212357
sS'TATCCC'
p47
F0.3139845316189016
sS'GTTCTG'
p48
F0.19757328758535217
sS'TACACC'
p49
F0.28884776227280934
sS'TATCCG'
p50
F-0.27140539477851594
sS'GGTGTT'
p51
F-0.04604575715000485
sS'ATTCCG'
p52
F-0.0938009130005942
sS'TTCTGG'
p53
F-0.08882365677946481
sS'CCGGGT'
p54
F0.15330633377426264
sS'ATTCCC'
p55
F0.2446339259715161
sS'TTCTGC'
p56
F-0.08418668680672962
sS'ATTCCA'
p57
F-0.0010932612255595256
sS'GTTCTA'
p58
F-0.592123497274881
sS'TGCACT'
p59
F-0.20877305464770457
sS'TATCTT'
p60
F-0.46658282781637095
sS'CGCGGT'
p61
F0.15784867656192367
sS'CCCGCG'
p62
F0.014046185834859264
sS'CGCGGG'
p63
F0.030885253387209252
sS'CGCGGC'
p64
F0.23993880476313628
sS'CGCGGA'
p65
F0.3333604899253713
sS'ACCTGT'
p66
F-0.2219200316985976
sS'TCATGT'
p67
F-1.5427418314524224
sS'CCCGCC'
p68
F0.37711199778844795
sS'TTACAG'
p69
F-0.4263654504745863
sS'CTCCGC'
p70
F0.4068251235592656
sS'TTACAA'
p71
F-0.7583064676703132
sS'TTACAC'
p72
F-0.540218428318106
sS'CTCCGG'
p73
F-0.10000925693121454
sS'TCATGC'
p74
F-0.5245747747940577
sS'ACCTGG'
p75
F0.12183949268514178
sS'GGCGAA'
p76
F0.4730224833543777
sS'GTAAGC'
p77
F-0.3458402058016791
sS'TCATGG'
p78
F-0.4949126221266985
sS'ACCTGC'
p79
F0.28647529908766123
sS'ACCTGA'
p80
I0
sS'GTATTT'
p81
F-1.0692447519945434
sS'CTCGAT'
p82
F0.12418070850004435
sS'CTCCGT'
p83
F0.11719458763937825
sS'GCCTGA'
p84
I0
sS'GCCTGC'
p85
F0.528379673119097
sS'GCCTGG'
p86
F0.35600276038007
sS'TCTTGC'
p87
F-0.2221370162056861
sS'TAAAGG'
p88
I0
sS'CAAATT'
p89
F-0.7172125868297763
sS'TAAAGA'
p90
I0
sS'GCATAA'
p91
I0
sS'AAGGTC'
p92
F0.26467998748575755
sS'TATTAG'
p93
I0
sS'GCCTGT'
p94
F-0.23437147262269778
sS'TATCTA'
p95
F-0.7239251544928432
sS'TAAAGT'
p96
I0
sS'CAAATA'
p97
F-0.8097714603043215
sS'CAAATC'
p98
F-0.3841587173143771
sS'CGTGCT'
p99
F0.2745550032494645
sS'CAAATG'
p100
F-0.3505866408261408
sS'AATACT'
p101
F-0.7335862997052418
sS'TATCTC'
p102
F-0.13121034293452963
sS'CCGGCG'
p103
F-0.14182626501709136
sS'GGCATG'
p104
F0.5549309348337719
sS'GGCATA'
p105
F0.0439337085877596
sS'GGCGAC'
p106
F0.5762176202662445
sS'GGCATC'
p107
F0.44499375975413413
sS'AATACG'
p108
F-0.07004603355377133
sS'AATACA'
p109
I0
sS'AATACC'
p110
F-0.0519707396600092
sS'GGCATT'
p111
F0.09508623103514088
sS'TATCTG'
p112
F0.07328910194029656
sS'TGCACA'
p113
F-0.3214744193184528
sS'GAGCAC'
p114
F0.20276596220193513
sS'ACTGAT'
p115
F0.007936055316240627
sS'GAGCAG'
p116
F0.7461563037121103
sS'AGTAGT'
p117
F-0.5239720065058971
sS'TCTCGC'
p118
F0.20775412139173505
sS'TCTCGA'
p119
F0.2303173549464816
sS'TCTCGG'
p120
F0.2932858466950595
sS'ACTGAG'
p121
F0.32107358565105276
sS'AGTAGA'
p122
F-0.32129726472415326
sS'TTTGGT'
p123
F-0.2843180992642296
sS'AGTAGG'
p124
F-0.5933248659023888
sS'ACTGAA'
p125
F0.035964778916484204
sS'AAGGTT'
p126
F0.3329264124460527
sS'GGGTCA'
p127
F0.1574216416387234
sS'GTGTCG'
p128
F0.09811268566532871
sS'TCGAAC'
p129
F-0.07254055208284921
sS'TCGAAA'
p130
F-0.025288070435222847
sS'GTGTCC'
p131
F0.5771615338782092
sS'CGCACG'
p132
F0.032571836019144845
sS'GTGTCA'
p133
F0.03841528005811409
sS'GTTGTA'
p134
F-0.4879346354162607
sS'CTTGCT'
p135
F-0.00039671820230517495
sS'TCGGTC'
p136
F0.44686976475288953
sS'GTGTCT'
p137
F0.220817837753032
sS'TTGAAG'
p138
F-0.09315077143920387
sS'TCGAAT'
p139
I0
sS'CTTGCG'
p140
F-0.1050236171093428
sS'CTTGCA'
p141
F-0.2091254234150296
sS'CTTGCC'
p142
F0.35259984791104143
sS'CGAAAG'
p143
F0.5681391236203905
sS'CGAAAA'
p144
F-0.31336989632205203
sS'CGAAAC'
p145
F0.42338866890336657
sS'AATCAT'
p146
F-0.8700531901710813
sS'AAATGC'
p147
F-0.36816432255913
sS'CACGGC'
p148
F0.4557332250841946
sS'AAATGA'
p149
I0
sS'ACAGTC'
p150
F0.04245525785985414
sS'CACGGG'
p151
F0.02586445201215846
sS'ACAGTA'
p152
F-0.7487064443597417
sS'TAGAGC'
p153
I0
sS'CGAAAT'
p154
F-0.20925748802967148
sS'ACAGTT'
p155
F-0.5605676366172356
sS'AATCAG'
p156
F-0.11044389940926004
sS'CACGGT'
p157
F0.07959857584730379
sS'AAATGT'
p158
F-0.9020837832282744
sS'AATCAC'
p159
F-0.4082637675784408
sS'TTTGTA'
p160
F-0.6688919899951671
sS'GCTCAA'
p161
F0.04464392049076651
sS'TCTAGT'
p162
F-0.22774089372368464
sS'TTGCCG'
p163
F0.18723245424713333
sS'ATACGT'
p164
F-0.4437036648170581
sS'GGGTAT'
p165
F-0.33346937177892966
sS'ATACGA'
p166
F-0.14772366188971855
sS'TCTAGG'
p167
F-0.18251335378630776
sS'ATACGC'
p168
F-0.05331679403546642
sS'TCTAGA'
p169
F-0.2647457651097738
sS'GGGTAG'
p170
I0
sS'TCTAGC'
p171
F0.04964819211218893
sS'ATACGG'
p172
F0.07328910194029647
sS'TGACTA'
p173
I0
sS'TTTGTG'
p174
F-0.030943592873252657
sS'TGGGCC'
p175
F0.3260144180297227
sS'AGATGT'
p176
F-0.5724353904424971
sS'TCGCCC'
p177
F0.5091963567467575
sS'TCGCCA'
p178
F0.09032244123907689
sS'GGGTCG'
p179
F-0.39255114236967686
sS'TCGCCG'
p180
F-0.16172109373403062
sS'GGTAAT'
p181
F-0.18383540802460294
sS'ACCCAT'
p182
F-0.08178865018786032
sS'GTCAAC'
p183
F0.4620470670743393
sS'ACCCAC'
p184
F-0.18317488397042825
sS'GGTAAC'
p185
F-0.026948854416687307
sS'ACCCAA'
p186
F-0.5776905304027552
sS'AGATGG'
p187
F-0.5617304070090281
sS'ACCCAG'
p188
F0.15899172454948796
sS'AGATGA'
p189
I0
sS'TCGCCT'
p190
F0.3421344142328765
sS'AGATGC'
p191
F-0.4014393396634756
sS'TTTGAG'
p192
F0.35184389561938445
sS'CCCCAT'
p193
F0.11719458763937818
sS'TGGTCT'
p194
F-0.029476655716811954
sS'TTGGGT'
p195
F-0.3148910694425847
sS'CACTAG'
p196
I0
sS'CACTAA'
p197
I0
sS'CACTAC'
p198
F0.09940209909099529
sS'CCCCAA'
p199
F-0.12803798053145807
sS'CCCCAC'
p200
F-0.1489770378878156
sS'CCCCAG'
p201
F0.3367726858607684
sS'CACTAT'
p202
F-0.10354390705129493
sS'CTATCG'
p203
I0
sS'TCGGTT'
p204
F-0.29169460133579145
sS'TTGGGA'
p205
F0.14226530873061008
sS'TTGGGC'
p206
F-0.029053435463826136
sS'CTCGAG'
p207
F0.3421344142328765
sS'TAGTGG'
p208
I0
sS'TTTCTG'
p209
F-0.1631203522361452
sS'TGCAGC'
p210
F-0.277033479786942
sS'TGCCTC'
p211
F0.007813251842524672
sS'TGCCTA'
p212
F-1.1591205202035053
sS'TGCAGG'
p213
F0.13734058430149604
sS'TTTCCG'
p214
F-0.21215279529908518
sS'GTGGCC'
p215
F0.7130161901708781
sS'TCAGAC'
p216
F0.25470919450104473
sS'TTTCTT'
p217
F-0.9167612052563091
sS'TGCCTT'
p218
F-0.1270066466772702
sS'TGCAGT'
p219
F-0.305003951830274
sS'TAGTGC'
p220
I0
sS'GTGAGC'
p221
F0.20477276623307242
sS'AAGGAA'
p222
F0.3959197578055188
sS'AAGGAC'
p223
F0.6602371427719635
sS'AAGGAG'
p224
F0.8661545385720231
sS'ATATGC'
p225
F-0.7621575523977794
sS'GTTCCA'
p226
F-0.12803798053145807
sS'ATATGA'
p227
I0
sS'TACGAA'
p228
F0.041104418568895275
sS'ATATGG'
p229
F-0.9866818855542734
sS'AAGGAT'
p230
F0.517314246968937
sS'CTATCA'
p231
F-0.35238124867689236
sS'TGGTTT'
p232
F-0.45431792186114905
sS'ATATGT'
p233
F-0.9548440068261516
sS'GGTCCC'
p234
F0.7065070752586456
sS'GCCCAG'
p235
F0.46530412810232974
sS'CCACTG'
p236
F0.08309792625583189
sS'GCCCAA'
p237
F0.2642476385382505
sS'GGTCCG'
p238
F0.6375605323788592
sS'AGGTCT'
p239
F-0.04703167013165602
sS'TGTGTC'
p240
F-0.36627714633598385
sS'AGACCC'
p241
F0.18723245424713325
sS'AGACCA'
p242
F-0.15730016343076544
sS'AGACCG'
p243
F-0.20193363011739912
sS'CTTCGC'
p244
F0.23601639943799632
sS'ATGCAA'
p245
F-0.4809383409251009
sS'AGGTCC'
p246
F-0.03243937611494848
sS'AGGTCA'
p247
F-0.6347720798423921
sS'AGGTCG'
p248
F0.14583976908890822
sS'GGTCCT'
p249
F0.5953437587724092
sS'TCCGGA'
p250
F0.45389354827985195
sS'CTTAGC'
p251
F0.16604315517719526
sS'ATTGTG'
p252
F0.048491296193126456
sS'CTTAGA'
p253
F-0.09436898957852186
sS'ATGCAC'
p254
F0.05793766826178508
sS'CTTAGG'
p255
F-0.4802204986428206
sS'ATTGTC'
p256
F0.22073517954644778
sS'ATTGTA'
p257
F-0.3300459386184472
sS'CGCTAC'
p258
F0.4139337066579018
sS'ATTTTG'
p259
F-0.6580871080784315
sS'CGCTAA'
p260
I0
sS'ATTTTA'
p261
F-1.1506544727421915
sS'CGCTAG'
p262
I0
sS'ATTTTC'
p263
F-0.3755774275107636
sS'GAGGTC'
p264
F0.7163155119287556
sS'TAGCAG'
p265
I0
sS'GATACT'
p266
F-0.11650343479277278
sS'TAGCAC'
p267
I0
sS'TAGCAA'
p268
I0
sS'GAGGTT'
p269
F0.5863542173405993
sS'ATTTTT'
p270
F-1.050080838927553
sS'GCCTTG'
p271
F0.15649783727096486
sS'GTGGGG'
p272
F-0.35058664082614077
sS'GCCTTA'
p273
F-0.03156554386460428
sS'TTGACA'
p274
F-0.49355615725954916
sS'CGCTAT'
p275
F0.1774726169579771
sS'GATACG'
p276
F-0.05580559443916111
sS'TAGCAT'
p277
I0
sS'GATACC'
p278
F0.1508031886204584
sS'GATACA'
p279
F0.21753299374398316
sS'TGAGCT'
p280
I0
sS'GTCACC'
p281
F0.5365016299784338
sS'GATCAT'
p282
F0.06384754570745499
sS'TGGCAC'
p283
F-0.2751655436518227
sS'AAGACA'
p284
F-0.22932880950331658
sS'AAGACC'
p285
F0.8370375573712843
sS'ACAATG'
p286
F-0.08334934369319141
sS'AAGACG'
p287
F0.4926272553135646
sS'CCACTT'
p288
F-0.17522102017136013
sS'TGAGCG'
p289
I0
sS'GATCAC'
p290
F0.21991853596004982
sS'GATCAA'
p291
F0.19651801554517379
sS'AAGACT'
p292
F0.1421993916807904
sS'GAAGGG'
p293
F0.13607993179975206
sS'CTTCCA'
p294
F-0.14732710625549733
sS'GCGGTA'
p295
F-0.28988880047252913
sS'GCGGTG'
p296
F0.47804328472942836
sS'CGGTGT'
p297
F0.02774045701091381
sS'TCGTTA'
p298
F-0.7950387787924351
sS'TCGTTC'
p299
F0.002541023429534559
sS'CTTCCC'
p300
F0.17916483249910028
sS'ACTTGT'
p301
F-0.5498275996970249
sS'TTGGAG'
p302
F0.39094862982431194
sS'TGTGTG'
p303
F-0.8957417808176307
sS'GCGGTT'
p304
F0.2434553784859734
sS'ACTTGC'
p305
F-0.2375007310128409
sS'ATGTGA'
p306
I0
sS'ACTTGA'
p307
I0
sS'CGGTGG'
p308
F-0.48254916096140327
sS'ACTTGG'
p309
F-0.05331679403546642
sS'CGGTGA'
p310
I0
sS'CGGTGC'
p311
F-0.7185634261207352
sS'TGCCGC'
p312
F0.3633237133028146
sS'TTCCTA'
p313
F0.007024628996619902
sS'TAGACT'
p314
I0
sS'TTCCTC'
p315
F0.22640506428121643
sS'ATGTGC'
p316
F-0.2035922997920252
sS'TGGGTT'
p317
F-0.4933620302436207
sS'TTCCTG'
p318
F0.52288357435383
sS'TCCTTT'
p319
F-0.4445494187005175
sS'GACCCA'
p320
F0.2999367344384216
sS'TTCCGT'
p321
F-0.051649634668003416
sS'TAGACG'
p322
I0
sS'TTCCTT'
p323
F-0.2150289282075468
sS'TAGACC'
p324
I0
sS'TAGACA'
p325
I0
sS'TCCTTG'
p326
F0.04590330145066401
sS'TCCTTA'
p327
F-0.6377606679894053
sS'TCCTTC'
p328
F0.14903547506024292
sS'ATCTCT'
p329
F-0.12305790253605202
sS'TCCGCA'
p330
F0.28641032871101185
sS'ACCGTT'
p331
F0.14147496368645826
sS'TGGCGC'
p332
F-0.2310688370726121
sS'TTTACG'
p333
F-0.8491968113795416
sS'TGGCGA'
p334
F-0.3442464627951218
sS'GGCCAT'
p335
F-0.2349879304719842
sS'ATCTCG'
p336
F0.21659952861963916
sS'ATCTCA'
p337
F0.0543326843026505
sS'ATCTCC'
p338
F0.2902166149673829
sS'GGCCAA'
p339
F0.0353265797099354
sS'GGCCAC'
p340
F0.24888935531122544
sS'ACCGTG'
p341
F0.5926390276045252
sS'ACCGTA'
p342
F-0.3076175674329607
sS'GGCCAG'
p343
F0.5128306414018515
sS'ACCGTC'
p344
F0.5200542843349658
sS'AGAATT'
p345
F-0.7057891380843063
sS'GGCAGT'
p346
F0.29835548965428926
sS'CCATAA'
p347
I0
sS'CAAAGG'
p348
F-0.2599255770950858
sS'CCATAC'
p349
F0.015419993170727009
sS'CAAAGA'
p350
F-0.43773681654504093
sS'GAAACG'
p351
F0.03056974702977804
sS'CAAAGC'
p352
F-0.10162838753088231
sS'CAACGT'
p353
I0
sS'GGCAGA'
p354
F0.4552129249358202
sS'GGCAGC'
p355
F0.6190307301801383
sS'CGTGAG'
p356
F0.22660314614640784
sS'GGCAGG'
p357
F0.10918365859841654
sS'CAACGC'
p358
F-0.25733276651680637
sS'CAAAGT'
p359
F-0.39307032292392047
sS'CAACGA'
p360
F0.20625569156056373
sS'CTAACC'
p361
F-0.22052253671850308
sS'CAACGG'
p362
F0.23645047691731488
sS'CGTGAA'
p363
F0.4170209950543017
sS'GGGGGT'
p364
F0.02920519526918765
sS'TACGCT'
p365
F0.2578135285328405
sS'GAAACC'
p366
F0.01067446276404459
sS'CGATCT'
p367
F0.01599369798586419
sS'CTCTAG'
p368
I0
sS'TGAGCC'
p369
I0
sS'CTCTAA'
p370
I0
sS'CTCTAC'
p371
F0.35733334961362706
sS'GGGGGG'
p372
F-0.4669440876308272
sS'CGATCC'
p373
F-0.033529199728008906
sS'CGATCA'
p374
F-0.5073727446864353
sS'GGGGGC'
p375
F0.47698143950142546
sS'CGATCG'
p376
F-0.17449538177045953
sS'GGGGGA'
p377
F-0.22392792382356697
sS'TACGCG'
p378
F0.20195571106783966
sS'CTCTAT'
p379
F-0.08328001741290962
sS'TTCTGA'
p380
I0
sS'CAGACC'
p381
F0.4840459655099511
sS'CAGACA'
p382
F-0.112438246154123
sS'CAGACG'
p383
F0.524779283736877
sS'TGCGTG'
p384
F-0.44551398207736814
sS'TAGTTG'
p385
I0
sS'GCTAAT'
p386
F-0.22112867007844755
sS'TAGTTC'
p387
I0
sS'TAGTTA'
p388
I0
sS'CAGACT'
p389
F0.0543326843026505
sS'GCTAAG'
p390
F0.04499946245241947
sS'TAGTTT'
p391
I0
sS'GCTAAC'
p392
F-0.06535091234539148
sS'GCTAAA'
p393
F0.20673024394641157
sS'TAAGTG'
p394
I0
sS'TGCTGC'
p395
F-0.13639460341117632
sS'AACCCT'
p396
F0.2905765772605996
sS'TATCAA'
p397
F-0.43601683615076714
sS'AACCCC'
p398
F0.4528933631451276
sS'AACCCA'
p399
F0.02868150717739112
sS'AACCCG'
p400
F0.42756460955750286
sS'TGCATC'
p401
F0.16229921404332062
sS'AGATTT'
p402
F-0.6637199455463595
sS'ACGTAA'
p403
I0
sS'AACTGG'
p404
F0.15470322942021325
sS'AACTGA'
p405
I0
sS'AACTGC'
p406
F0.0457826808466659
sS'CCCAGA'
p407
F0.2150296158680689
sS'CCCAGC'
p408
F0.5029857067318209
sS'CCCAGG'
p409
F0.24522440122482
sS'AACTGT'
p410
F-0.07403041454536022
sS'AGTTTT'
p411
F-0.6160295167195415
sS'ACGTAT'
p412
F-0.5648159935723052
sS'CCCAGT'
p413
F0.3613282641911659
sS'CTCCAA'
p414
F-0.15601197607644646
sS'TTGACG'
p415
F0.032571836019144845
sS'TATAAT'
p416
F-0.7203580339714867
sS'CGCATA'
p417
F-0.3705754015174709
sS'ATACTG'
p418
F-0.4401334023455994
sS'CGCATC'
p419
F0.5392211341575974
sS'ATACTA'
p420
F-0.5887418768822358
sS'ATACTC'
p421
F-0.48946115537773327
sS'CGCATG'
p422
F0.30476300300757564
sS'GCGCAA'
p423
F-0.15377788555181512
sS'ATACTT'
p424
F-0.704862148443347
sS'CGCATT'
p425
F0.06365301290155824
sS'GCGCAC'
p426
F-0.03156554386460428
sS'GCTCCG'
p427
F0.23484988119193237
sS'TATTGT'
p428
F-1.0325484816253585
sS'GCTCCC'
p429
F0.2805383429863645
sS'GCTCCA'
p430
F0.41638044260498913
sS'CCTACT'
p431
F0.21065323560702334
sS'TGTACT'
p432
F-1.2942101742551717
sS'TTTAGT'
p433
F-0.7376926229848999
sS'TATTGG'
p434
F-0.748946055114456
sS'GCTCCT'
p435
F0.3084513010303039
sS'GCGCAG'
p436
F0.29425960154673103
sS'GCTGGG'
p437
F0.26792692301699866
sS'TTTAGG'
p438
F-0.42965131339785345
sS'TGTACG'
p439
F-0.45125680270750396
sS'CCTACG'
p440
F0.21874950569319812
sS'TGTACA'
p441
F-0.9092430469869054
sS'CCTACA'
p442
F0.09249936049335142
sS'TGTACC'
p443
F-0.5384069784264042
sS'CCTACC'
p444
F-0.11379754141684788
sS'TTCGCG'
p445
F-0.40103925259519574
sS'TTCGCA'
p446
F0.046305612254703116
sS'TTCGCC'
p447
F0.6530726985571067
sS'AGTATC'
p448
F-0.09294740244372775
sS'GACTAA'
p449
I0
sS'AGTATA'
p450
F-1.0037991546014844
sS'GACTAC'
p451
F0.6503134516865218
sS'AGTATG'
p452
F-0.2592199807060772
sS'TTTGGA'
p453
F-0.20499085849299598
sS'GACTAG'
p454
I0
sS'TTCGCT'
p455
F0.319961435281685
sS'GTGTAT'
p456
F-0.3551087708026363
sS'GACTAT'
p457
F0.2696831848596055
sS'AGTATT'
p458
F-0.5176197323148399
sS'TTACTC'
p459
F-0.46918519940342174
sS'GGTCTT'
p460
F0.404282320981721
sS'TTACTG'
p461
F-0.34718420442696146
sS'ACCTTG'
p462
F-0.005892144107328298
sS'ACCTTC'
p463
F0.3237293515501524
sS'ACCTTA'
p464
F-0.6670735875539473
sS'TTACTT'
p465
F-0.8188055007501839
sS'ACCTTT'
p466
F-0.01214109338432977
sS'ACAGGG'
p467
F0.06319944159985738
sS'CTGGGA'
p468
F0.3615998316102003
sS'CTGGGC'
p469
F0.7220924968105852
sS'ACAGGC'
p470
F0.15106599920754238
sS'ACAGGA'
p471
F0.2225604165888763
sS'CTGGGG'
p472
F0.14583976908890822
sS'CAGGAC'
p473
F0.5765342768474646
sS'GCAGCT'
p474
F0.3449637042517408
sS'CAGGAA'
p475
F0.3561451286756911
sS'TCGCTT'
p476
F-0.04321646713114062
sS'AGGACC'
p477
F0.10404846574583455
sS'AGGACA'
p478
F-0.2592199807060772
sS'GCGCAT'
p479
F0.07328910194029656
sS'TTATAC'
p480
F-1.1066822867839687
sS'ACAGGT'
p481
F0.1458397690889083
sS'CTGGGT'
p482
F0.23041252191999773
sS'TTATAG'
p483
I0
sS'CTCCGA'
p484
F0.3525998479110415
sS'TCGCTG'
p485
F0.33772529532782136
sS'GAGTTG'
p486
F0.33303890939834685
sS'GCAGCG'
p487
F0.11018533771219431
sS'AGGACT'
p488
F-0.1803563949056295
sS'GCAGCA'
p489
F0.1786322824852158
sS'GCAGCC'
p490
F0.45593678472321686
sS'CAGGAT'
p491
F0.26786376668999096
sS'TGCTGA'
p492
I0
sS'CCTCAG'
p493
F0.5049681434139672
sS'CCTCAA'
p494
F0.12163650390747897
sS'CCTCAC'
p495
F0.146698907810046
sS'TATGTT'
p496
F-0.7354281401089509
sS'ATGGGC'
p497
F0.49433659762330767
sS'TCTTTG'
p498
F-0.5214008667682649
sS'ATGGGA'
p499
F0.23979873236008264
sS'TCTTTA'
p500
F-0.4780598251218934
sS'ATGGGG'
p501
F0.23408803510686052
sS'TCTTTC'
p502
F-0.283290036853696
sS'CCTCAT'
p503
F0.17211730288938837
sS'TCTTTT'
p504
F-0.3863531546606642
sS'GCTAGC'
p505
F-0.34211233328243595
sS'TATGTA'
p506
F-1.0515661084667838
sS'ATGGGT'
p507
F0.2867772244681572
sS'TATGTC'
p508
F-0.19380053696584623
sS'GAAAGA'
p509
F-0.183835408024603
sS'ATCAAG'
p510
F0.5651837022278408
sS'CATGAT'
p511
F-0.18977364758926127
sS'ATCAAC'
p512
F0.44078616280535143
sS'GAAAGG'
p513
F0.11412535591170164
sS'ATCAAA'
p514
F0.013349744355933455
sS'GGAACT'
p515
F0.27209654762512137
sS'GTCAGG'
p516
F-0.21287361618141196
sS'CATGAG'
p517
F0.2849915280963078
sS'ATCAAT'
p518
F-0.2574696168352235
sS'GTCCAA'
p519
F-0.02445529073248513
sS'CATGAC'
p520
F0.10458515243666351
sS'CATGAA'
p521
F-0.08197582879946527
sS'TGACCT'
p522
I0
sS'GTAGCG'
p523
F0.07608200212446672
sS'CAAGTT'
p524
F-0.4371642462816141
sS'GCGGCT'
p525
F0.6952874232104466
sS'GCTTTA'
p526
F-0.5049287625366113
sS'GCTTTC'
p527
F0.09909636554658198
sS'TTTCTC'
p528
F-0.40863103566113457
sS'GCGGCG'
p529
F0.34995975174483307
sS'CAAGTG'
p530
F0.10579512789528438
sS'GTAGCT'
p531
F-0.019348126956448285
sS'TTCTTT'
p532
F-0.48080383584523473
sS'GCGGCC'
p533
F0.4151553515756829
sS'CAAGTC'
p534
F-0.1442868635647482
sS'GCGGCA'
p535
F0.24522440122482006
sS'CAAGTA'
p536
F-0.4940087831284539
sS'AACGGT'
p537
F0.7223456559444826
sS'GGGGAA'
p538
F0.05101270722914427
sS'TAATCG'
p539
I0
sS'CTTGTG'
p540
F-0.01192410887724135
sS'TAATCA'
p541
I0
sS'TAATCC'
p542
I0
sS'TGCGAA'
p543
F-0.16301556408702944
sS'CGGCCC'
p544
F0.5470824133110316
sS'AAAATT'
p545
F-0.4227048040233148
sS'TTGATA'
p546
F-0.38679881348058553
sS'CGGCCG'
p547
F0.5340199404717897
sS'CTTGTA'
p548
F-0.5709221677202566
sS'GGTCTG'
p549
F0.4992578342125777
sS'TAATCT'
p550
I0
sS'AGTTTA'
p551
F-0.5948816932319377
sS'TGCGAC'
p552
F0.5340199404717896
sS'GGTCTC'
p553
F0.4715923849805697
sS'GGAGGC'
p554
F0.4846583256422893
sS'GGTCTA'
p555
F0.1317151263973019
sS'AAAATG'
p556
F-0.2695130411008111
sS'AAAATC'
p557
F-0.006738604454175228
sS'TCAATA'
p558
F-1.0141646700733182
sS'AAAATA'
p559
F-1.032875633792922
sS'TCGTCA'
p560
F0.04332587856285339
sS'ATCCCT'
p561
F0.45433632943824387
sS'TTCAGG'
p562
F0.12183949268514178
sS'ATATCC'
p563
F-0.29149432718794754
sS'TCGTCG'
p564
F0.5182256732885578
sS'TTTAGC'
p565
F-0.8437718271164035
sS'TGCCAA'
p566
F-0.28729598989424954
sS'TCGGGA'
p567
F-0.0007580281082556324
sS'GAACAA'
p568
F-0.13170913072555002
sS'ATCCCG'
p569
F0.5954724195589829
sS'GAACAC'
p570
F0.0007384347916848628
sS'ATCCCC'
p571
F0.440680189935192
sS'GAACAG'
p572
F0.31563172296493974
sS'ATCCCA'
p573
F0.30523817846097867
sS'AACGGA'
p574
F0.440680189935192
sS'CACCAC'
p575
F0.16037528377682891
sS'CACCAA'
p576
F-0.6266343484030449
sS'CACCAG'
p577
F0.3288186620862674
sS'AACATT'
p578
F-0.3019498927573024
sS'AACGGG'
p579
F0.21278655871952146
sS'TCCGTC'
p580
F0.18390451089820584
sS'GAGTTA'
p581
F0.008735125425573673
sS'TCCGTA'
p582
F-0.2599255770950858
sS'ACCAGA'
p583
F0.0707907567078214
sS'CACCAT'
p584
F-0.06043399862123209
sS'AACATG'
p585
F0.20916265963592628
sS'AACATA'
p586
F-0.6464723136852838
sS'AACATC'
p587
F0.39566027444526997
sS'CAGTCG'
p588
F0.4090812038634897
sS'GCACGG'
p589
F0.09032244123907689
sS'GTCAGA'
p590
F-0.08460915228936566
sS'GCACGA'
p591
F0.23518890890774666
sS'CAGTCC'
p592
F0.2760748455071567
sS'GCACGC'
p593
F-0.18957253877256122
sS'CAGTCA'
p594
F-0.03926830828614824
sS'GCACCA'
p595
F0.1411648640789216
sS'GCAAGC'
p596
F-0.10280215711538464
sS'GCACGT'
p597
F0.18904579501060167
sS'CAGTCT'
p598
F0.28723795065162055
sS'TAAAGC'
p599
I0
sS'GCAAGG'
p600
F-0.3110780995424672
sS'GTCAGT'
p601
F0.07990132558553366
sS'GTATAC'
p602
F-0.3738689294019226
sS'TTCCCG'
p603
F0.306418861966342
sS'GTATAA'
p604
I0
sS'GTATAG'
p605
I0
sS'CCGGAA'
p606
F-0.8639200682002479
sS'CCGGAC'
p607
F0.6515164842616236
sS'CCGGAG'
p608
F0.4165692252560397
sS'CGTCTT'
p609
F-0.015187743530897047
sS'TATTTG'
p610
F-0.9404121757370916
sS'TTCCGG'
p611
F0.07538209144614035
sS'TTCCGA'
p612
F0.06996115859136905
sS'TTCCGC'
p613
F0.5264668025813437
sS'GTATAT'
p614
F-0.8188768779353068
sS'CGTCTC'
p615
F0.020284574631321852
sS'CGTCTA'
p616
F-0.024955150156824573
sS'CGTCTG'
p617
F0.35259984791104143
sS'CCGGAT'
p618
F0.5493676323129442
sS'CTCTTC'
p619
F0.5189648981170817
sS'TGTTAT'
p620
F-0.6373995083162812
sS'CTCTTA'
p621
F-0.42731324862888875
sS'CTCTTG'
p622
F-0.1896761519143871
sS'CCCGAT'
p623
F0.44359205499165355
sS'TACGTA'
p624
F-0.43429001685026114
sS'TACGTC'
p625
F0.3073723079736646
sS'TCTGGT'
p626
F-0.01537693738355291
sS'CGCGAT'
p627
F0.25057511960892126
sS'TACGTG'
p628
F0.48637830603656307
sS'TGTTAG'
p629
I0
sS'GGTTTC'
p630
F-0.08897395769181571
sS'CTCGTG'
p631
F-0.2421160186765284
sS'CTCTTT'
p632
F-0.1668020687258225
sS'TGTTAA'
p633
I0
sS'CGCGAA'
p634
I0
sS'CGCGAC'
p635
F0.1508031886204584
sS'GATATT'
p636
F-0.08968867781864061
sS'TCTGGC'
p637
F0.1015203410405507
sS'TACGTT'
p638
F-0.11224371334822626
sS'CGCGAG'
p639
F0.4090812038634897
sS'AGTCGT'
p640
F0.22239687131038438
sS'TTACCT'
p641
F-0.44479076045827237
sS'CTCCAT'
p642
F-0.37580342917912235
sS'TATGCC'
p643
F0.2176521090716369
sS'TTACCG'
p644
F-0.46838612929408874
sS'CTCCAC'
p645
F-0.12401670659853399
sS'AGTCGG'
p646
F0.2909818917854952
sS'TTACCC'
p647
F-0.6420713185838915
sS'AGTCGA'
p648
F0.2440978260615658
sS'TTACCA'
p649
F-0.5117375500888854
sS'AGTCGC'
p650
F-0.5648159935723052
sS'GTACCG'
p651
F-0.48716935859814847
sS'CCGACT'
p652
F0.5072856872245449
sS'GCCTAC'
p653
F0.2569021022132198
sS'GCCTAA'
p654
I0
sS'GCCTAG'
p655
I0
sS'GTGCGG'
p656
F0.4740220107965043
sS'CCGACA'
p657
F0.128637738981286
sS'GATATC'
p658
F0.33191524905119046
sS'CCGACC'
p659
F0.6337228536640163
sS'CCGACG'
p660
F0.5552092395417277
sS'GCCTAT'
p661
F0.20253208073691312
sS'TGACGG'
p662
I0
sS'TGACGT'
p663
I0
sS'CCCGAG'
p664
F0.7603287496397791
sS'CTCGTT'
p665
F-0.03212749496552833
sS'CCCGAA'
p666
F0.6354775812305667
sS'CGCACA'
p667
F-0.1593998991014662
sS'ATACAC'
p668
F-0.9971750311651869
sS'CGCACC'
p669
F0.7339141142000957
sS'ATACAA'
p670
F-0.5825140129323203
sS'ACTGCT'
p671
F-0.06109119090084492
sS'ATACAG'
p672
F-0.46378109542827217
sS'ATTGCC'
p673
F0.3397547124875218
sS'GGGTCC'
p674
F-0.16253058974081627
sS'GAGCGT'
p675
F0.41985829487968174
sS'CTCACT'
p676
F0.2275098155402278
sS'GGGTCT'
p677
F0.17362927787621685
sS'ACTGCA'
p678
F-0.1473050647663204
sS'TTTGTC'
p679
F-0.2110693157801855
sS'ACTGCC'
p680
F0.2675007959359723
sS'CGCACT'
p681
F0.3743190976042777
sS'ATACAT'
p682
F-1.2409023397816554
sS'ACTGCG'
p683
F-0.0573538830020218
sS'CTCACC'
p684
F0.6176403510491592
sS'CTCACA'
p685
F-0.06804005085617276
sS'CTCACG'
p686
F-0.33292343269773095
sS'GTGGGT'
p687
F0.00020968242211415056
sS'GTGAGG'
p688
F-0.17084889114631133
sS'GATTTT'
p689
F-0.3525847129494839
sS'ACAATT'
p690
F-0.6964289809064843
sS'CTTGAA'
p691
F-0.017477201930344088
sS'TAGTGA'
p692
I0
sS'GTGAGA'
p693
F-0.25780533944907547
sS'TCGACG'
p694
F0.43904442724093296
sS'TCGACA'
p695
F-0.06804005085617276
sS'TAGAGG'
p696
I0
sS'ACAATA'
p697
F-0.8219755475396905
sS'GTGAGT'
p698
F-0.09223486006583606
sS'ACAATC'
p699
F-0.07086934087503707
sS'GATTTC'
p700
F0.3033007673847929
sS'CCAGTA'
p701
F-0.0690442003946261
sS'TCGACT'
p702
F-0.43601683615076714
sS'CTGGTT'
p703
F0.16804913787479392
sS'TTGAGT'
p704
F-0.3894229573067344
sS'TCAAAA'
p705
F-0.7118913455272089
sS'CGAACG'
p706
F-0.33996766481584684
sS'CGAACC'
p707
F0.1113538437495941
sS'CGAACA'
p708
F-0.27140539477851594
sS'CTGGTG'
p709
F0.7740821348264828
sS'CTGGTA'
p710
F-0.048856734483833264
sS'CTGGTC'
p711
F0.6499610193749371
sS'CGAACT'
p712
F-0.3599266670802842
sS'TTGCAT'
p713
F-0.978605170442995
sS'GACGAG'
p714
F1.2236617198738082
sS'TTGCAG'
p715
F-0.0068547477121356755
sS'GAGGGA'
p716
F0.4339047875885218
sS'TTGCAC'
p717
F-0.3293029196486663
sS'TTGCAA'
p718
F-0.5098030503116857
sS'TCCATC'
p719
F-0.06778865028075705
sS'TCGCAT'
p720
F-0.11534582997970856
sS'GTCGTG'
p721
F0.5118854952575387
sS'GTCGTA'
p722
F0.20383171606659506
sS'GTCGTC'
p723
F0.5588435241968217
sS'CCGTTT'
p724
F-0.042053696739348015
sS'GAGCAA'
p725
F0.2951378515566529
sS'TTTTTG'
p726
F-0.7258746535023344
sS'ATATCG'
p727
F-0.4394500119891611
sS'GTCGTT'
p728
F-0.248134052365528
sS'TCAGAT'
p729
F0.030234137100474397
sS'TCGCAG'
p730
F0.4339047875885219
sS'GTGCTC'
p731
F0.16524847154850178
sS'TCGCAC'
p732
F0.22215909715612664
sS'CCGTTG'
p733
F0.3007417290746514
sS'CCGTTA'
p734
F-0.2788934161710659
sS'CCGTTC'
p735
F0.2648373120598031
sS'GATCGG'
p736
F0.15726923086969002
sS'AATGCT'
p737
F-0.02451085908799615
sS'GGTACG'
p738
F-0.18690463975227947
sS'GGTACA'
p739
F-0.2665225821483165
sS'TCCAGG'
p740
F0.041104418568895365
sS'GGTACC'
p741
F0.33191524905119046
sS'GCGGAC'
p742
F0.517314246968937
sS'CAGGGA'
p743
F0.18956528607960482
sS'TTCAGC'
p744
F0.2977011485200888
sS'TATTTC'
p745
F-0.3812951943994386
sS'TATTTA'
p746
F-1.3199485230131076
sS'CCCCCT'
p747
F0.28983448165464826
sS'GGTACT'
p748
F-0.0838343180394046
sS'AATGCG'
p749
F0.00634231230968339
sS'AATGCC'
p750
F-0.09286363458120489
sS'AATGCA'
p751
F-0.09415058651538084
sS'CCCCCC'
p752
F-0.3071209470450505
sS'CCCCCA'
p753
F0.1688724451960595
sS'TATTTT'
p754
F-1.6271261432699031
sS'CCCCCG'
p755
F0.3329264124460527
sS'CTTGAG'
p756
F0.31017901083964877
sS'ATGATG'
p757
F0.01824153560939104
sS'GAAGTA'
p758
F-0.04230312403551403
sS'ATGATA'
p759
F-0.7142258671489791
sS'ATGATC'
p760
F0.28414246725518977
sS'TGCAAC'
p761
F-0.009420963723437103
sS'TGCAAA'
p762
F-0.1937117741058155
sS'TGCAAG'
p763
F0.341339730604183
sS'GAAGTG'
p764
F0.2923627975018807
sS'ATGATT'
p765
F-0.10738578258521111
sS'CTTGAT'
p766
F0.07693559256444475
sS'GTGCTT'
p767
F-0.04745352007439531
sS'TTGAGG'
p768
F-0.03189343703374972
sS'GCCATT'
p769
F0.19654387179391786
sS'TTGAGC'
p770
F0.028116632419364324
sS'TGCAAT'
p771
F-0.18588397069987206
sS'GAGAAT'
p772
F0.26496845942057734
sS'TGTCTT'
p773
F-0.5757793490760914
sS'TTCAGA'
p774
F-0.33346937177892966
sS'AGTAGC'
p775
F-0.36543576186505994
sS'AAGGCC'
p776
F0.585172462919171
sS'ATAACC'
p777
F-0.6588983912048914
sS'AAGGCA'
p778
F0.03635798354443362
sS'ATAACA'
p779
F-0.45551462585004543
sS'AAGGCG'
p780
F0.39352935615733264
sS'ATAACG'
p781
F-0.6531873234893528
sS'TATGCT'
p782
F-0.06622671009270441
sS'GAGGGT'
p783
F0.724258850588763
sS'TGTCTG'
p784
F-0.40001918287924826
sS'GAGAAG'
p785
F0.9166221134076558
sS'GAGAAA'
p786
F0.4848019178016081
sS'TGTCTC'
p787
F-0.3537223546789994
sS'GAGAAC'
p788
F0.7227461119266627
sS'TGTCTA'
p789
F-0.863920068200248
sS'TGTGGC'
p790
F-0.3153653454337006
sS'TGTGGA'
p791
F-0.2521002395831293
sS'TGTGGG'
p792
F-0.9766243483915362
sS'ATAACT'
p793
F-0.4955141381257709
sS'ACTGAC'
p794
F-0.013744249438449721
sS'GGTATT'
p795
F-0.021043488179949145
sS'AGGTAT'
p796
F-0.21179193571712418
sS'ACCAAG'
p797
F0.754112949104128
sS'GAGCAT'
p798
F0.2957243398050048
sS'ACCAAA'
p799
F0.37387975059472645
sS'ATCATC'
p800
F0.39734969421016175
sS'ACCAAC'
p801
F0.3646498043542076
sS'GGTCAC'
p802
F0.06447063689310793
sS'GATCGC'
p803
F0.07328910194029656
sS'GGTCAT'
p804
F-0.06094523409157215
sS'ACCAAT'
p805
F0.18304981053495753
sS'AGGTAG'
p806
I0
sS'AGGTAA'
p807
I0
sS'AGGTAC'
p808
F-0.6819992654838428
sS'TTTTGC'
p809
F-0.541121327774095
sS'GCCGTC'
p810
F0.7400744229049141
sS'AATTGG'
p811
F-0.7055575761049983
sS'GTCGGA'
p812
F0.2994901590963443
sS'AATTGA'
p813
I0
sS'ATCATG'
p814
F0.4101628843277774
sS'AATTGC'
p815
F-0.5995189678984278
sS'TAGCCA'
p816
I0
sS'TGGGGT'
p817
F0.14093243459416405
sS'CGCTCG'
p818
F0.18723245424713333
sS'GATAAT'
p819
F-0.19777767034624139
sS'CGCTCA'
p820
F0.22187393990234724
sS'CGCTCC'
p821
F0.4821021412062961
sS'AATTGT'
p822
F-0.9870454640450795
sS'AATCTT'
p823
F-0.6081509427090317
sS'TCTTAT'
p824
F-0.9300388414086309
sS'GTTATG'
p825
F-0.2235447791300765
sS'CGCTCT'
p826
F0.12535606640797894
sS'GATAAA'
p827
F0.15812550297004505
sS'TCGAAG'
p828
F0.3285616070436026
sS'GATAAC'
p829
F0.5141630198840502
sS'TAGCCT'
p830
I0
sS'TGGGGC'
p831
F-0.28625451581743505
sS'GATAAG'
p832
F0.4843321562826821
sS'GATCCT'
p833
F0.45573322508419445
sS'AAGAAT'
p834
F0.0791979615508168
sS'GGGGCT'
p835
F0.01599369798586419
sS'GTTATC'
p836
F-0.17178948839453465
sS'AAGAAC'
p837
F0.4642874165822427
sS'GATCCA'
p838
F0.40471639846103963
sS'AAGAAA'
p839
F0.29842087083347235
sS'GATCCC'
p840
F0.4205408260305403
sS'AAGAAG'
p841
F0.7953595218723868
sS'GATCCG'
p842
F0.21526117784737683
sS'GCCCCA'
p843
F0.27466657537131217
sS'TATTAA'
p844
I0
sS'CAAGGG'
p845
F-0.026948854416687307
sS'CAAGGC'
p846
F0.19962204354020177
sS'GGTTCT'
p847
F0.21410460064743464
sS'CAAGGA'
p848
F0.28537801426749665
sS'GGTTCA'
p849
F0.17211730288938837
sS'GGTTCC'
p850
F0.4825101210220232
sS'AAGGCT'
p851
F0.5276929578674912
sS'TGCATT'
p852
F-0.5123575280412873
sS'GGTTCG'
p853
F-0.07317969050858382
sS'TAGGCA'
p854
I0
sS'ATTATA'
p855
F-1.0088976542470536
sS'ATTATC'
p856
F-0.1149389204756571
sS'TAGAAT'
p857
I0
sS'GATAGT'
p858
F-0.2193077261868218
sS'ATTATG'
p859
F-0.42555140247260215
sS'AGTCTT'
p860
F-0.4933620302436207
sS'TCCCAA'
p861
F-0.4645991538118248
sS'TAGAAA'
p862
I0
sS'TAGAAC'
p863
I0
sS'ATTATT'
p864
F-0.9492767259584448
sS'TAGAAG'
p865
I0
sS'AGTCTA'
p866
F-0.03025148996677299
sS'AGTCTC'
p867
F0.04201776166452186
sS'AGTCTG'
p868
F0.3158990633746765
sS'TAACTC'
p869
I0
sS'TAACTA'
p870
I0
sS'TAACTG'
p871
I0
sS'ATCTAT'
p872
F-0.4936152221754644
sS'GCCCCG'
p873
F0.6014400756336242
sS'TAACTT'
p874
I0
sS'ATCTAG'
p875
I0
sS'ATCTAC'
p876
F0.4439187150160073
sS'ATCTAA'
p877
I0
sS'GGTCAG'
p878
F0.33510115150167263
sS'CCATGT'
p879
F-0.10439007289501658
sS'GCCCCC'
p880
F-0.20946493703380858
sS'TGGAGG'
p881
F-0.18306469889260685
sS'TGGAGA'
p882
F-0.2435564660398357
sS'GGTCAA'
p883
F0.018931439617703844
sS'CCATGC'
p884
F-0.1072337719144596
sS'TCCAGA'
p885
F0.1234996995030869
sS'CCATGA'
p886
I0
sS'CCATGG'
p887
F0.18890603813669948
sS'TGGAGT'
p888
F-0.185372735229532
sS'TCAGTA'
p889
F-0.36367501463344776
sS'TCAGTC'
p890
F-0.12452140680862099
sS'CTCTCT'
p891
F-0.4024379477877606
sS'GGGGAT'
p892
F0.63019943273249
sS'TCAGTG'
p893
F-0.0935042299773952
sS'CGATAT'
p894
F-0.12300554320367164
sS'CTCTCG'
p895
F-0.32331255595947883
sS'GGGGAC'
p896
F0.2164208433746155
sS'CTCTCC'
p897
F0.05081389995540325
sS'TCAGTT'
p898
F-0.5984927330730512
sS'CTCTCA'
p899
F0.0014070946341711858
sS'CGATAG'
p900
I0
sS'CGATAA'
p901
I0
sS'ATGCTG'
p902
F0.2407801892340602
sS'CGATAC'
p903
F0.40547707959466445
sS'TTCACT'
p904
F-0.13058989607137783
sS'GTGTTT'
p905
F-0.16844541055405038
sS'GCTACT'
p906
F-0.004175562892653648
sS'GTGGTT'
p907
F0.1616783497747452
sS'GTGTTC'
p908
F0.13032760291066073
sS'GTGTTA'
p909
F-0.756632883780747
sS'GTGTTG'
p910
F-0.624246797134724
sS'CGTGCC'
p911
F0.26147848261924594
sS'GTGGTA'
p912
F0.018440433932951507
sS'GCTACA'
p913
F-0.2866598303423306
sS'GTGGTC'
p914
F0.5292210575900209
sS'GCTACC'
p915
F0.21978848820285615
sS'GTGGTG'
p916
F0.7427460456568794
sS'GCTACG'
p917
F-0.0838343180394046
sS'CGTGCA'
p918
F-0.145206005668472
sS'TTTCGT'
p919
F-0.2614738656579465
sS'TGCCCT'
p920
F-0.02495515015682447
sS'AGCGTT'
p921
F0.008517051365303308
sS'CGTGCG'
p922
F-0.3670547552848284
sS'CACGGA'
p923
F0.516291173511358
sS'TGCCCA'
p924
F-0.13083088071562826
sS'TGCCCG'
p925
F0.17863228248521573
sS'ACAGTG'
p926
F-0.10019601009767141
sS'AGCGTA'
p927
F-0.4121046787453558
sS'AGCGTC'
p928
F0.4934020895635256
sS'GTACGT'
p929
F-0.34848351573837644
sS'AGCGTG'
p930
F0.21443473709959465
sS'GGCCCC'
p931
F0.7584158791020259
sS'GGCCCA'
p932
F-0.23189685349484232
sS'CACGTG'
p933
F0.12418070850004435
sS'GGCCCG'
p934
F0.1458397690889083
sS'CACGTA'
p935
F-0.8062037762504783
sS'CACGTC'
p936
F0.23471676410831435
sS'ACGTGC'
p937
F-0.3345591953919901
sS'ACGTGA'
p938
I0
sS'ACGTGG'
p939
F0.05422609589080029
sS'AAATGG'
p940
F-0.021256325470121
sS'CACGTT'
p941
F-0.5736923941619996
sS'GGGGCC'
p942
F0.4853767616736263
sS'TCTTAA'
p943
I0
sS'GGCCCT'
p944
F0.1990852810421334
sS'GGGACA'
p945
F0.1826848264964126
sS'GGTATA'
p946
F-0.19297878746447272
sS'GGGACC'
p947
F0.5513940365412122
sS'TCGTGG'
p948
F-0.26761240576137685
sS'ACGTGT'
p949
F-0.5491640480295091
sS'TCTTAG'
p950
I0
sS'GCTTCC'
p951
F0.24247569279666906
sS'AGAGAG'
p952
F-0.045604893766391465
sS'AGAGAA'
p953
F0.04539089508991676
sS'AGAGAC'
p954
F0.462381930931137
sS'TCGTGA'
p955
I0
sS'GTCTTT'
p956
F-0.42758366861390434
sS'TCTATC'
p957
F-0.7057179013939303
sS'TCTATG'
p958
F-0.23692293726167948
sS'AGAGAT'
p959
F0.1706633528139405
sS'TTCACA'
p960
F-0.36670331324104694
sS'GTCTTG'
p961
F-0.0807768722591053
sS'TCTATT'
p962
F-0.2830223415196121
sS'GTCTTC'
p963
F0.37623229224855825
sS'GTCTTA'
p964
F-0.38795539068052776
sS'GCAGAG'
p965
F0.6438393043324477
sS'GAAGGC'
p966
F0.5462543968888014
sS'GCTCAC'
p967
F0.16784520955487564
sS'GCAGAC'
p968
F0.4433744180630682
sS'GCAGAA'
p969
F0.1405369622809937
sS'GCTCAG'
p970
F0.5728220245327418
sS'ATGCGT'
p971
F0.12482141844940152
sS'TTGCTG'
p972
F-0.061965903143979616
sS'CTTGAC'
p973
F0.2299844346680832
sS'TTGCTA'
p974
F-0.5927245969997725
sS'TTGCTC'
p975
F-0.6114181911981357
sS'GCAGAT'
p976
F0.29057657726059966
sS'GCTCAT'
p977
F0.05829963690858944
sS'GTTTGC'
p978
F-0.2774634034141022
sS'TTGCTT'
p979
F-0.5182035923381172
sS'ATGCGG'
p980
F0.060938663553867296
sS'GAGAGG'
p981
F0.5270571543494309
sS'TAGCCG'
p982
I0
sS'ATGCGC'
p983
F-0.10970682531469339
sS'ATGCGA'
p984
F0.01762332271937238
sS'TGTAAG'
p985
F-0.052692359015018154
sS'GGCTAG'
p986
I0
sS'TGTAAC'
p987
F-0.22008118049972153
sS'GGCTAC'
p988
F0.6242790657364838
sS'GACTGT'
p989
F0.015550314096507136
sS'GGCTAA'
p990
I0
sS'ACTGTA'
p991
F-0.6079521354352906
sS'TTGGTA'
p992
F-0.8401171535276232
sS'ACTGTC'
p993
F-0.027317056627723556
sS'TTGGTC'
p994
F-0.11967972364280231
sS'TTCGAC'
p995
F0.928954439004102
sS'ACTGTG'
p996
F0.07790706647664396
sS'AATCAA'
p997
F-0.8231886614064099
sS'GACTGC'
p998
F0.41477321826294816
sS'GGCTAT'
p999
F0.2986687204517861
sS'GACTGA'
p1000
I0
sS'GACTGG'
p1001
F0.613709430558582
sS'TGTAAT'
p1002
F-1.1607477026312074
sS'TGTGGT'
p1003
F-0.19956366799106473
sS'TTGGTT'
p1004
F-0.25061716079900115
sS'ACTGTT'
p1005
F-0.1075485921398464
sS'GTTTCT'
p1006
F-0.31648656896632393
sS'ATAATT'
p1007
F-1.0439821937154679
sS'CCTTTT'
p1008
F-0.2541732482059947
sS'GTTTCG'
p1009
F-0.2732895386530674
sS'GTTTCC'
p1010
F-0.2487028729863374
sS'GTTTCA'
p1011
F-0.5491640480295091
sS'ATAATG'
p1012
F-0.37889295758502245
sS'CCTTTA'
p1013
F-0.3279788500806685
sS'CCTTTC'
p1014
F0.20222321614676428
sS'ATAATC'
p1015
F-0.5570605288755429
sS'ATAATA'
p1016
F-1.397946174256383
sS'CCTTTG'
p1017
F-0.019275955044042333
sS'ACAGAA'
p1018
F0.021191433348602382
sS'ACAGAC'
p1019
F0.04742830434541893
sS'GCCCCT'
p1020
F0.3600318065038728
sS'ACAGAG'
p1021
F0.4670731508411764
sS'TTATCT'
p1022
F-0.56918628938862
sS'CTGGAC'
p1023
F0.88734684523189
sS'CTGGAA'
p1024
F0.2702524069267511
sS'CTGGAG'
p1025
F0.8004220163388973
sS'ACAGAT'
p1026
F0.2059676978617454
sS'GTGAAG'
p1027
F0.6398055804563005
sS'TGGGGA'
p1028
F-0.07797857339035258
sS'CCTTGC'
p1029
F0.08405093179574198
sS'TTATCA'
p1030
F-0.9410860230125472
sS'CTGGAT'
p1031
F0.6193397266228448
sS'TTATCC'
p1032
F-0.6547523503429805
sS'CCAATG'
p1033
F0.13075109829468506
sS'AAACCG'
p1034
F-0.08799027781056233
sS'AAACCA'
p1035
F0.08342873329117655
sS'CCAATC'
p1036
F-0.1884311597137521
sS'AAACCC'
p1037
F0.17583299450303932
sS'CCAATA'
p1038
F-0.816371670021692
sS'TGTCGG'
p1039
F-0.34848351573837644
sS'GAGATC'
p1040
F0.8800421498783337
sS'AACGAG'
p1041
F0.641229910119658
sS'GAGATA'
p1042
F0.066042065191997
sS'AACGAA'
p1043
F0.3233433691678473
sS'GAGATG'
p1044
F0.6546561405833169
sS'AACGAC'
p1045
F0.8498892989542021
sS'AAACCT'
p1046
F0.005573240952509786
sS'CCAATT'
p1047
F-0.48900376251617816
sS'ATTTGC'
p1048
F-0.6756652521615389
sS'GTCGAT'
p1049
F0.05689868575212713
sS'ATTTGG'
p1050
F-0.48229103644747273
sS'AACGAT'
p1051
F0.5115337923241026
sS'TGTCGT'
p1052
F-0.04685075178623464
sS'CCCTAC'
p1053
F0.3155908501135705
sS'GAGATT'
p1054
F0.45442290264333535
sS'CCCTAA'
p1055
I0
sS'TACAAC'
p1056
F0.3279916132665874
sS'CATTAT'
p1057
F-0.4487536575536998
sS'CTACAC'
p1058
F-0.46112755673379835
sS'TGGATT'
p1059
F-0.27032505968932846
sS'ATCACA'
p1060
F-0.06133266684918633
sS'ATCACC'
p1061
F0.6057131651268646
sS'CATGCT'
p1062
F-0.28877379477173765
sS'TGACAC'
p1063
I0
sS'ATCACG'
p1064
F0.1284269675712265
sS'TGGATA'
p1065
F-0.8715730324287735
sS'CATTAG'
p1066
I0
sS'CATTAA'
p1067
I0
sS'CATTAC'
p1068
F-0.11834516916756858
sS'CATGCA'
p1069
F-0.352299836270261
sS'TGACAT'
p1070
I0
sS'CATGCC'
p1071
F0.21874950569319812
sS'ATCACT'
p1072
F0.20950884895828553
sS'CATGCG'
p1073
F-0.38214145536791255
sS'GTAGAA'
p1074
F-0.07502082428338201
sS'GTAGAC'
p1075
F0.17199248769039646
sS'GTAGAG'
p1076
F0.2714056458522571
sS'ACAACA'
p1077
F-0.2970673850996524
sS'ACAACC'
p1078
F-0.24046015971776208
sS'GATTGC'
p1079
F-0.04604575715000485
sS'ACAACG'
p1080
F-0.4659800595282103
sS'ACTAAG'
p1081
F0.000922030009765961
sS'GTAGAT'
p1082
F0.002777631706650094
sS'TGCTAC'
p1083
F-0.005096003679233511
sS'GGGTAC'
p1084
F0.19034568967127627
sS'TGATGC'
p1085
I0
sS'GATTGT'
p1086
F-0.20119440528887514
sS'TTCAGT'
p1087
F-0.2437960767945501
sS'ACAACT'
p1088
F-0.23248732874814637
sS'GGGTAA'
p1089
I0
sS'TTGCCT'
p1090
F-0.04246444186634299
sS'TAATAG'
p1091
I0
sS'AGTCCG'
p1092
F0.4296677346452672
sS'TAATAC'
p1093
I0
sS'GTCCGA'
p1094
F0.45127888365794455
sS'TAATAA'
p1095
I0
sS'GTCCGC'
p1096
F0.1945316929886328
sS'TGTTTA'
p1097
F-1.130622035084336
sS'TCAACA'
p1098
F-0.41618259116579515
sS'CACATC'
p1099
F0.06618876152235752
sS'GTCCGT'
p1100
F0.161926588982363
sS'TAATAT'
p1101
I0
sS'ATTCGC'
p1102
F0.02774045701091381
sS'TTCTCC'
p1103
F0.09936502901441584
sS'ATTCGA'
p1104
F0.34472722481115603
sS'TAACGA'
p1105
I0
sS'ATTCGG'
p1106
F0.02774045701091381
sS'TTCTCG'
p1107
F0.24522440122482006
sS'GAGCTA'
p1108
F0.10527615414473634
sS'TCGTAC'
p1109
F0.00041732979967899476
sS'TACCTT'
p1110
F-0.23964011702339233
sS'TCGTAA'
p1111
I0
sS'TCGTAG'
p1112
I0
sS'GAACCT'
p1113
F0.22734967745511572
sS'ATCCAA'
p1114
F-0.07120317104368237
sS'ATCCAC'
p1115
F0.0695929563803328
sS'TGAACC'
p1116
I0
sS'TTCTCT'
p1117
F-0.11978790510603536
sS'ATCCAG'
p1118
F0.24079872862412535
sS'GAACCC'
p1119
F0.5662046238431908
sS'TTATAT'
p1120
F-1.262053053761443
sS'GAACCA'
p1121
F0.08101321710430552
sS'GAACCG'
p1122
F0.028869962151883616
sS'TACCTC'
p1123
F0.35204270289312545
sS'TCGTAT'
p1124
F-0.4255514024726022
sS'ACCATC'
p1125
F0.5794526034317548
sS'ACCATA'
p1126
F0.15626333700506045
sS'ACCATG'
p1127
F0.3896187240940575
sS'ATGTTG'
p1128
F-0.24743036144964417
sS'AGCTCT'
p1129
F0.2480973630705504
sS'TGTCCT'
p1130
F-0.30692213977130944
sS'AGTGGT'
p1131
F0.12937624550524549
sS'TGATGT'
p1132
I0
sS'ATGTTT'
p1133
F-0.4590311995728825
sS'ACCATT'
p1134
F-0.004315755872373235
sS'AGCTCG'
p1135
F0.2891058867867398
sS'AGTGGC'
p1136
F-0.007083624914746992
sS'AGCTCC'
p1137
F0.5773471254072144
sS'AGCTCA'
p1138
F0.05075580424507614
sS'TCCATG'
p1139
F0.29835548965428926
sS'CAGTAA'
p1140
I0
sS'CAGTAC'
p1141
F0.35980306707017207
sS'CAGTAG'
p1142
I0
sS'TTAATA'
p1143
F-1.0903767600569578
sS'CAGTAT'
p1144
F0.09339892032771455
sS'AAAGTA'
p1145
F-0.5850892524757865
sS'AAAGTC'
p1146
F-0.010048103878486038
sS'AAAGTG'
p1147
F0.21173682113904832
sS'GATCTA'
p1148
F-0.20780256378149703
sS'GATCTC'
p1149
F0.23189462397020566
sS'TGTCCA'
p1150
F-0.3499567719965113
sS'GATCTG'
p1151
F0.6690319712445665
sS'TCCCTT'
p1152
F0.010108389753684225
sS'CCGGCC'
p1153
F0.49137568533525744
sS'ATTAGG'
p1154
F-1.2825895617310297
sS'AAAGTT'
p1155
F-0.21237471379236725
sS'ACTCTC'
p1156
F0.12998141358830137
sS'ATTAGC'
p1157
F-0.2305159477784568
sS'TCCCTC'
p1158
F-0.01688752840879147
sS'TGTCCG'
p1159
F-0.11740166568567308
sS'TCCCTA'
p1160
F-0.9382488114534607
sS'TTAATG'
p1161
F-0.6398135627576009
sS'TCCCTG'
p1162
F0.4386364474252057
sS'GATCTT'
p1163
F0.2890167550302642
sS'CACAAT'
p1164
F-0.32003294219539363
sS'AAGTGC'
p1165
F0.015181172993192238
sS'TGTTCT'
p1166
F-0.844579817083237
sS'AAGTGG'
p1167
F0.012667715152924594
sS'TGATTG'
p1168
I0
sS'TGCGCA'
p1169
F-0.45374560311119866
sS'TCTGAT'
p1170
F0.17845852993962813
sS'TGTATT'
p1171
F-0.7040261626570058
sS'CGAGGT'
p1172
F0.1722921044541967
sS'TGTTCA'
p1173
F-0.8120431177585344
sS'CACAAG'
p1174
F0.2329899448078085
sS'TGTTCC'
p1175
F-0.7176633336080727
sS'AAGTGT'
p1176
F-0.08555429843367847
sS'CACAAC'
p1177
F0.07508247468233999
sS'TGTTCG'
p1178
F-0.9526466321541032
sS'TCTGAA'
p1179
F0.10663425920390199
sS'TCTGAC'
p1180
F0.2749990878153199
sS'TCTGAG'
p1181
F0.36272094501465396
sS'CGCGCC'
p1182
F0.04892975608085185
sS'CGCGCA'
p1183
F-0.2380571621996608
sS'GGTAAA'
p1184
F-0.0909192138554856
sS'CGCGCG'
p1185
F-0.5007421657874223
sS'CTCCCT'
p1186
F0.02686397945428509
sS'AGCGGG'
p1187
F0.29793075174082295
sS'AGCGGA'
p1188
F0.08625407910466418
sS'ACCTCT'
p1189
F0.2905225638929654
sS'GGTAAG'
p1190
F-0.04703167013165602
sS'CGCGCT'
p1191
F-0.03243937611494848
sS'ACCTCC'
p1192
F0.4637503000337081
sS'ACCTCA'
p1193
F0.186398074582408
sS'ACCTCG'
p1194
F0.4468697647528896
sS'CTCCCC'
p1195
F0.01234924738042024
sS'GCCTCT'
p1196
F0.4112801679634279
sS'TAAGCC'
p1197
I0
sS'CGGGAG'
p1198
F0.6604234153383634
sS'CCCATG'
p1199
F0.6564910881580912
sS'CGGGAA'
p1200
F0.42036221427317877
sS'CCCATA'
p1201
F-0.15214253349306753
sS'CGGGAC'
p1202
F0.4857152608972346
sS'CCCATC'
p1203
F0.42789600559182284
sS'TTGTTG'
p1204
F-0.48946115537773327
sS'CCTGCT'
p1205
F0.42571733122194927
sS'CCGAAT'
p1206
F0.19269534994863552
sS'CCCATT'
p1207
F0.19743315491990296
sS'CGGGAT'
p1208
F0.6154340679517064
sS'GCCTCG'
p1209
F0.3219310281445895
sS'GCCTCA'
p1210
F0.15802518316134712
sS'TAAGCT'
p1211
I0
sS'GCCTCC'
p1212
F0.3644108089440288
sS'CCGAAC'
p1213
F0.3344475855665855
sS'CCTGCG'
p1214
F0.2774090845962214
sS'CCGAAA'
p1215
F0.08717536600489102
sS'CCGAAG'
p1216
F0.5368677833446158
sS'CCTGCC'
p1217
F0.3465887556591265
sS'CCTGCA'
p1218
F0.1784992469559466
sS'GTACTG'
p1219
F-0.16670125366399255
sS'CAAGGT'
p1220
F-0.00524922099671722
sS'CCATTC'
p1221
F-0.2788934161710659
sS'CCATTA'
p1222
F-0.25138180355179224
sS'CCATTG'
p1223
F-0.12716150297482937
sS'TATAAC'
p1224
F-0.0674046528175891
sS'GATTTG'
p1225
F-0.13966174549677265
sS'GTACTC'
p1226
F-0.4462360013324532
sS'GTCGAA'
p1227
F0.42547162005165906
sS'CCATTT'
p1228
F-0.22100751106471622
sS'TCAGCG'
p1229
F-0.2999059212300532
sS'TCTACC'
p1230
F-0.020747949222029577
sS'TCTACG'
p1231
F0.1960063785546384
sS'ACTTTC'
p1232
F-0.09585329716005687
sS'CGCAAC'
p1233
F0.42338866890336657
sS'TGCTTA'
p1234
F-0.7331517879312242
sS'CGCAAA'
p1235
F0.316718818606154
sS'ATACCG'
p1236
F-0.17684928716393686
sS'CGCAAG'
p1237
F0.6904565115310008
sS'ATACCA'
p1238
F-0.5714902442981844
sS'ATACCC'
p1239
F0.24169353232968677
sS'TCTACT'
p1240
F-0.40568415764095933
sS'CCGAGT'
p1241
F0.261018668408052
sS'ATACCT'
p1242
F-0.16921834865690236
sS'GATAGG'
p1243
I0
sS'CGCAAT'
p1244
F0.18225005372819342
sS'TAGTAA'
p1245
I0
sS'TGGGTG'
p1246
F0.09032244123907689
sS'TAGTAC'
p1247
I0
sS'CTCAAG'
p1248
F0.6320280437788981
sS'GTTTTG'
p1249
F-0.305003951830274
sS'CTCAAA'
p1250
F-0.06687102058932118
sS'TAGTAG'
p1251
I0
sS'CTCAAC'
p1252
F0.7608970740156304
sS'GTGTGC'
p1253
F0.03170052391366086
sS'GTGTGA'
p1254
I0
sS'GTGTGG'
p1255
F-0.10391430748475232
sS'TAACGG'
p1256
I0
sS'TTGCGT'
p1257
F-0.5029636257813803
sS'CTCAAT'
p1258
F0.2256288451614393
sS'TAGTAT'
p1259
I0
sS'GTTCTC'
p1260
F-0.06237350005977651
sS'GTGTGT'
p1261
F-1.052617366443058
sS'ATCTTT'
p1262
F0.025448660231329037
sS'GTTGGG'
p1263
F0.19946691066414501
sS'GTTGGA'
p1264
F0.37539809066091717
sS'GTTGGC'
p1265
F0.07748521653390468
sS'CCTTGG'
p1266
F-0.036782357125730684
sS'CCTTGA'
p1267
I0
sS'GGGAAA'
p1268
F-0.03254848162535863
sS'AGGATT'
p1269
F0.03462229104097493
sS'GGACGT'
p1270
F0.5105388446222667
sS'GTTGGT'
p1271
F-0.18026682194833482
sS'ATCTTG'
p1272
F0.06501657597430674
sS'GAGAGT'
p1273
F0.3615179124395522
sS'ATCTTA'
p1274
F-0.584355026634122
sS'ATCTTC'
p1275
F0.3548756320631669
sS'AGGATC'
p1276
F0.46707315084117645
sS'AGGATA'
p1277
F-0.3021232568895408
sS'AGGATG'
p1278
F0.15714336665147738
sS'GACATG'
p1279
F0.42452969516706807
sS'GACATC'
p1280
F0.6963774232919127
sS'GACATA'
p1281
F-0.09070403549211653
sS'TCGGCG'
p1282
F0.21874950569319812
sS'GAATAT'
p1283
F-0.09307683009537948
sS'GGTGCA'
p1284
F0.23979873236008264
sS'TCGGCC'
p1285
F0.2871689218853777
sS'ATCAGA'
p1286
F-0.1762085772145797
sS'TTGCGA'
p1287
F-0.01688752840879147
sS'GACATT'
p1288
F0.3447638540425617
sS'TTGCGG'
p1289
F0.1960063785546384
sS'GAATAG'
p1290
I0
sS'TCGGCT'
p1291
F0.26931869093816535
sS'CATAGA'
p1292
F-0.4736330237567359
sS'GAATAC'
p1293
F0.30592224157843184
sS'GAATAA'
p1294
I0
sS'TGCCTG'
p1295
F0.15534330983365163
sS'CACCGC'
p1296
F0.23058387504192998
sS'TGCAGA'
p1297
F-0.28818233665851206
sS'TTAATT'
p1298
I0
sS'GGACGA'
p1299
F0.5244746225655592
sS'TGAGGT'
p1300
I0
sS'TTTCTA'
p1301
F-0.6849238185011595
sS'TTATAA'
p1302
I0
sS'GAAATG'
p1303
F-0.04157576067691349
sS'AATGAT'
p1304
F0.08847830054070663
sS'GAAATA'
p1305
F-0.7172125868297763
sS'GAAATC'
p1306
F0.3762507293219368
sS'GAAATT'
p1307
F-0.07688545808407686
sS'AATGAA'
p1308
F-0.10022473422757397
sS'AATGAC'
p1309
F0.09551797824427814
sS'AATGAG'
p1310
F0.3667114778389529
sS'TCAGCA'
p1311
F-0.3322205010925818
sS'TACTAG'
p1312
I0
sS'CTTGGA'
p1313
F-0.04193724829196767
sS'CTTGGC'
p1314
F0.42901953380567726
sS'GTATTG'
p1315
F-0.954217319153334
sS'GTCCTT'
p1316
F-0.4001042802601227
sS'CTTGGG'
p1317
F0.02774045701091381
sS'AGCCCT'
p1318
F0.27077850569720824
sS'GGGAAT'
p1319
F0.1940718787774388
sS'TTGAAT'
p1320
F-0.7761618121454323
sS'GTCCTA'
p1321
F0.045558759995145276
sS'GTCCTC'
p1322
F0.15835632651090428
sS'TGCACG'
p1323
F-0.13498684048678591
sS'CTTGGT'
p1324
F0.05369354587691585
sS'GTCCTG'
p1325
F0.3080546246606011
sS'TGCACC'
p1326
F0.4381835855677968
sS'TTGAAA'
p1327
F-0.516345492329239
sS'AGCCCG'
p1328
F0.36768851870526464
sS'AGCCCA'
p1329
F0.21065323560702334
sS'AGCCCC'
p1330
F0.3624559917715877
sS'TTAACT'
p1331
F-0.7858953993525654
sS'ATAAAT'
p1332
F-0.7627202315720243
sS'TGGTCG'
p1333
F0.2875487159471012
sS'TGGTCA'
p1334
F-0.5377257320405923
sS'TGGTCC'
p1335
F0.051088639475496224
sS'ACGATT'
p1336
F-0.41843166134965426
sS'GAGACT'
p1337
F0.5043492698045693
sS'GATTCA'
p1338
F0.04448942777030724
sS'GAGGAG'
p1339
F1.14226530873061
sS'ATAAAG'
p1340
F-0.23787176433904242
sS'ATAAAA'
p1341
F-0.8977903990292749
sS'TCAGCC'
p1342
F0.2642476385382505
sS'ATAAAC'
p1343
F-0.524250311213853
sS'GAGACG'
p1344
F0.7797471276688654
sS'ACGATG'
p1345
F0.03016443250488245
sS'CTACAG'
p1346
F0.2058376987641936
sS'GAGACC'
p1347
F0.8752990955728275
sS'ACGATC'
p1348
F0.08172226947715938
sS'GAGACA'
p1349
F0.32652934090230057
sS'ACGATA'
p1350
F-0.18613936293416725
sS'GGTTAC'
p1351
F-0.10391430748475232
sS'ATGTGT'
p1352
F-0.5582814868962043
sS'GGTTAA'
p1353
I0
sS'ACCACT'
p1354
F0.18482638448125482
sS'GCACTT'
p1355
F-0.04534016076099611
sS'CTTCCT'
p1356
F0.10016124834059785
sS'TAAACT'
p1357
I0
sS'CTCAGT'
p1358
F0.14513531722009196
sS'TCCGCT'
p1359
F-0.20193363011739912
sS'ACCACG'
p1360
F0.49161609191870237
sS'ATGTGG'
p1361
F0.0546068889725423
sS'ACCACC'
p1362
F0.52492443563726
sS'GAGGAA'
p1363
F0.6372954762327597
sS'ACCACA'
p1364
F0.16030981142425282
sS'GGTTAT'
p1365
F0.015018850254653864
sS'TCCGCC'
p1366
F0.5215033830497936
sS'GACGTG'
p1367
F0.6812848733487648
sS'TCCGCG'
p1368
F-0.6086475630969419
sS'AACGTC'
p1369
F0.42510864929764036
sS'AACGTA'
p1370
F-0.2505181085732547
sS'AACGTG'
p1371
F0.41663434175393554
sS'CGTGAC'
p1372
F-0.05580559443916116
sS'AGTGTG'
p1373
F-0.18805003245637977
sS'TCTTCG'
p1374
F0.17199248769039646
sS'AGTGTA'
p1375
F-0.24844043296511525
sS'TCTTCA'
p1376
F-0.10952809104429082
sS'AGTGTC'
p1377
F-0.07993927415588051
sS'TCTTCC'
p1378
F0.11599099939032051
sS'CGTGAT'
p1379
F0.15024888799396338
sS'TAAGTC'
p1380
I0
sS'AACGTT'
p1381
F0.06229371763883339
sS'CCGTGA'
p1382
I0
sS'TCTTCT'
p1383
F-0.08074801644155354
sS'AGTGTT'
p1384
F-0.21736804238228824
sS'GTGCGC'
p1385
F0.508180678745622
sS'TTGGCA'
p1386
F-0.17133686252562985
sS'AAAGGT'
p1387
F0.007261065522867935
sS'TTGGCC'
p1388
F0.2145065391137953
sS'GAGTAG'
p1389
I0
sS'TTAACG'
p1390
F-0.5343033779876268
sS'TTGGCG'
p1391
F0.1644552393975634
sS'GACTTC'
p1392
F0.5938297824516694
sS'TCGAGT'
p1393
F-0.36503006871841387
sS'GACTTA'
p1394
F-0.27302087518523366
sS'GACTTG'
p1395
F0.1432725035919487
sS'AAAGGG'
p1396
F0.10986454896297684
sS'AAAGGA'
p1397
F0.22292043313618456
sS'TTGGCT'
p1398
F0.10504569805978327
sS'AAAGGC'
p1399
F0.45818998380088466
sS'GAGTAC'
p1400
F0.7790732803934096
sS'GTATGG'
p1401
F-0.5256276104173241
sS'GACTTT'
p1402
F0.08068502398314217
sS'TAAACC'
p1403
I0
sS'CAAGAA'
p1404
F-0.011636019658117894
sS'GACGTT'
p1405
F0.22030891304871947
sS'CAAGAC'
p1406
F0.06875729231279175
sS'GATTCG'
p1407
F0.24110783502998795
sS'CAAGAG'
p1408
F0.4326603899408499
sS'TTCTTG'
p1409
F-0.5136634711249239
sS'TTCTTC'
p1410
F0.12698442696522236
sS'TTCTTA'
p1411
F-0.6409976604798281
sS'CAAGAT'
p1412
F0.03341758990260432
sS'AGGGCT'
p1413
F-0.23692293726167948
sS'TACGGG'
p1414
F0.6249395897906587
sS'TACGGA'
p1415
F0.4347038576978548
sS'TACGGC'
p1416
F0.6932104489892695
sS'CTCAGA'
p1417
F-0.05303937819600905
sS'TAGAGT'
p1418
I0
sS'TACGGT'
p1419
F0.1433791705412515
sS'AGGGCG'
p1420
F-0.14012648013919704
sS'AGGGCA'
p1421
F-0.019593421784716437
sS'AGGGCC'
p1422
F0.289894796144281
sS'TCGAGA'
p1423
F-0.2193077261868218
sS'CTGTGC'
p1424
F0.11685248877812615
sS'TAGAGA'
p1425
I0
sS'GGCGAG'
p1426
F0.5012274270754822
sS'CCGTGT'
p1427
F-0.42906797619543924
sS'GTGCTG'
p1428
F0.4712291106123342
sS'GTGCTA'
p1429
F-0.17763109562331808
sS'ATCTGT'
p1430
F-0.1299948949292869
sS'CGAATT'
p1431
F0.0546068889725424
sS'GCTCGT'
p1432
F0.5118854952575387
sS'ATCTGA'
p1433
I0
sS'CGAATC'
p1434
F0.2719765602001551
sS'ATCTGC'
p1435
F0.07688328368369463
sS'CGAATA'
p1436
F-0.7318456381289405
sS'CGAATG'
p1437
F0.10805120819950846
sS'ATCTGG'
p1438
F0.053525507770000896
sS'ATCATA'
p1439
F-0.2626865176200678
sS'GATAGC'
p1440
F0.037243997755657225
sS'AAGCAG'
p1441
F0.3728477427856244
sS'GATAGA'
p1442
F-0.46517506489198057
sS'AAGCAA'
p1443
F-0.20887508553784934
sS'CAAACT'
p1444
F-0.77317036389701
sS'AAGCAC'
p1445
F0.046096364126394326
sS'TTTACC'
p1446
F-0.43773681654504093
sS'CATTTC'
p1447
F-0.303461607661803
sS'CTAGGT'
p1448
F-0.3442464627951218
sS'CATTTA'
p1449
F-1.1032473590835399
sS'CATTTG'
p1450
F-0.5436119122738763
sS'GTTATA'
p1451
F-0.1858109738962877
sS'CAAACA'
p1452
F-0.781038177274021
sS'AAGCAT'
p1453
F-0.3458402058016791
sS'CAAACC'
p1454
F0.0105384269032915
sS'CTCGGG'
p1455
F0.6399112524991358
sS'ATCATT'
p1456
F0.01588023110555758
sS'CAAACG'
p1457
F-0.37027474765852464
sS'CTAGGG'
p1458
F-0.28258956173102967
sS'GTTATT'
p1459
F-0.5628900725362668
sS'TGGAGC'
p1460
F0.07525869480320099
sS'CTAGGC'
p1461
F0.2095088489582856
sS'CATTTT'
p1462
F-0.9000971449330685
sS'CTAGGA'
p1463
F0.0039626105643286325
sS'AAGTTT'
p1464
F0.14042792981498645
sS'TACAGT'
p1465
F-0.18498891330273476
sS'CTCGAA'
p1466
F-0.3410413229199104
sS'CTAACG'
p1467
I0
sS'CTAAGG'
p1468
F-0.21287361618141196
sS'CTAAGA'
p1469
F-0.05112733216139039
sS'CTAAGC'
p1470
F-0.08328001741290962
sS'TACAGG'
p1471
F0.25343110505035304
sS'AAGTTG'
p1472
F-0.024574357075082445
sS'AAGTTA'
p1473
F-0.5713550553533097
sS'TACAGC'
p1474
F0.2572461940538542
sS'AAGTTC'
p1475
F0.23969732881479486
sS'TACAGA'
p1476
F-0.1607335794630657
sS'CTAAGT'
p1477
F-0.18383540802460294
sS'GTATGA'
p1478
I0
sS'GGGGCA'
p1479
F0.19319540122081005
sS'GGGGCG'
p1480
F0.24833763664896302
sS'TTCAAC'
p1481
F0.24795677677898448
sS'TATATC'
p1482
F-0.7497836532176809
sS'TATATA'
p1483
F-1.97996176370875
sS'TGTATA'
p1484
I0
sS'TATATG'
p1485
F-0.4288490225825822
sS'TCCGGT'
p1486
F0.5292210575900209
sS'GGTCCA'
p1487
F0.3531297985343397
sS'TATATT'
p1488
F-0.9215016543552317
sS'GGACTA'
p1489
F0.06229371763883339
sS'TCTTAC'
p1490
F-0.36503006871841387
sS'TGATGG'
p1491
I0
sS'CTCGGT'
p1492
F0.18723245424713333
sS'ATGAGT'
p1493
F-0.17197040673995595
sS'GCCCAC'
p1494
F0.18851167308630623
sS'TGATGA'
p1495
I0
sS'TGCCAT'
p1496
F-0.5092487496851907
sS'ACTCTT'
p1497
F-0.07920504831421607
sS'TGTTTC'
p1498
F-0.6009359168940345
sS'CACATA'
p1499
F-0.6564846800507379
sS'TCATAA'
p1500
I0
sS'CACATG'
p1501
F0.1375196969703042
sS'TGTTTG'
p1502
F-0.9316932985786434
sS'ATGAGA'
p1503
F-0.03537093410280462
sS'ATGAGC'
p1504
F0.09111278628322887
sS'ATGAGG'
p1505
F0.1742119442546223
sS'GTGGCT'
p1506
F0.444900171889985
sS'ACTCTG'
p1507
F0.4331540622816147
sS'TGCCAG'
p1508
F0.3073723079736646
sS'ACTCTA'
p1509
F0.012256200892243566
sS'ATTGTT'
p1510
F-0.32115086509967466
sS'CACATT'
p1511
F-0.4165384827549182
sS'TGCCAC'
p1512
F-0.2349879304719842
sS'AAATTC'
p1513
F0.0995630979739895
sS'AAATTA'
p1514
F-0.7911140932693469
sS'AAATTG'
p1515
F-0.48525024596622846
sS'TCCACT'
p1516
F0.15321336695770238
sS'TTCAAT'
p1517
F-0.2207861769147273
sS'CTTCGA'
p1518
F0.11168549285460248
sS'CGTACC'
p1519
F0.09468724664152704
sS'TTAATC'
p1520
F-0.8841892514982514
sS'AAATTT'
p1521
F-0.5408825075965602
sS'TTCGAA'
p1522
F-0.185372735229532
sS'CTTAGT'
p1523
F-0.13498684048678591
sS'GGGAAC'
p1524
F0.5396238179897882
sS'GGTGCG'
p1525
F0.10504569805978327
sS'GCGTAT'
p1526
F0.3525998479110415
sS'GGGAAG'
p1527
F0.4740220107965043
sS'GGTGCC'
p1528
F0.5795925855383344
sS'TCGTCC'
p1529
F0.6604234153383634
sS'GCCCAT'
p1530
F-0.2560305332115617
sS'AGAGCG'
p1531
F-0.377433610004956
sS'GCGACT'
p1532
F0.002541023429534559
sS'AGAGCC'
p1533
F0.3591677535316569
sS'AGAGCA'
p1534
F-0.23504832044384033
sS'GCGTAG'
p1535
I0
sS'GGTGCT'
p1536
F0.12653461389352164
sS'TCCCCA'
p1537
F0.1289013471726286
sS'GCGTAC'
p1538
F0.47905444812429077
sS'TAATTT'
p1539
I0
sS'GCGTAA'
p1540
I0
sS'GCGACG'
p1541
F-0.160097561069817
sS'AGAGCT'
p1542
F0.07143709707870313
sS'GCGACA'
p1543
F-1.0367823571257306
sS'TATCGG'
p1544
F-0.010048103878485988
sS'GCGACC'
p1545
F-0.6594138743299842
sS'TCCGGC'
p1546
F0.6632123299079866
sS'GCAGGA'
p1547
F0.42016292043477366
sS'GCAGGC'
p1548
F0.27077850569720824
sS'GCAGGG'
p1549
F-0.049556645162159615
sS'CAATTT'
p1550
F-0.7059742988127147
sS'GCACTA'
p1551
F-0.47458023129012794
sS'CCGTGC'
p1552
F0.06151888338887236
sS'GCTCGG'
p1553
F0.21410460064743464
sS'TATTCT'
p1554
F-0.2550512893200114
sS'CCGTGG'
p1555
F0.4131211816652298
sS'CTTTAG'
p1556
I0
sS'GCAGGT'
p1557
F0.18904579501060167
sS'CTTCGT'
p1558
F-0.07699489350909922
sS'TATTCC'
p1559
F-0.2888535330409239
sS'CAATTG'
p1560
F-0.4603135087318141
sS'TATTCA'
p1561
F-0.6313233250506693
sS'CAATTA'
p1562
F-1.194333841549439
sS'TATTCG'
p1563
F-0.18383540802460294
sS'CAATTC'
p1564
F-0.6069069015206406
sS'TGTAGA'
p1565
F-0.5872845114814162
sS'GGCTCA'
p1566
F0.1438701762260038
sS'AGCATT'
p1567
F0.0469601632179474
sS'GGCTCC'
p1568
F0.623859254701471
sS'AATCCT'
p1569
F0.11412535591170171
sS'TGTAGG'
p1570
F-1.1287378912097845
sS'GGCTCG'
p1571
F0.18723245424713333
sS'TTCGGA'
p1572
F0.3373879792084148
sS'TTCGGC'
p1573
F0.43101140925228254
sS'CTTTAC'
p1574
F-0.1362016510184672
sS'TTCAAG'
p1575
F0.3736892287746483
sS'TTCGGG'
p1576
F0.25217326118014793
sS'AGCATG'
p1577
F0.34518639082598435
sS'GGCTCT'
p1578
F0.5824665695432459
sS'AGCATC'
p1579
F0.4196485009130384
sS'TTTACT'
p1580
F-0.5346958718976702
sS'AGCATA'
p1581
F-0.531545943442438
sS'TTACAT'
p1582
F-1.3348856098995794
sS'AGACCT'
p1583
F0.2164208433746155
sS'TTCGGT'
p1584
F0.10579512789528438
sS'GTTTAT'
p1585
F-0.8192335880020984
sS'GGGGAG'
p1586
F0.4116740144417692
sS'GCACTC'
p1587
F0.08416213253425842
sS'GCCTTT'
p1588
F0.05081389995540325
sS'TGCTTG'
p1589
F-0.3455219247453644
sS'GTTTAA'
p1590
I0
sS'GAGGTG'
p1591
F0.7937929468017723
sS'AACTTG'
p1592
F0.11808973288634933
sS'GTTTAG'
p1593
I0
sS'GAGGTA'
p1594
F0.07786869954504935
sS'CTGGCT'
p1595
F0.6584043764535945
sS'AGGCGG'
p1596
F-0.3690700465201539
sS'AGGCGA'
p1597
F-0.37506041020934144
sS'AGGCGC'
p1598
F0.1384994059231649
sS'AGGAGT'
p1599
F-0.35559297271204665
sS'ACAGCC'
p1600
F0.16747175673481302
sS'ACAGCA'
p1601
F-0.06901709172248446
sS'TCCAGC'
p1602
F0.3823194853525582
sS'ACAGCG'
p1603
F-0.12133195931410558
sS'AGGAGC'
p1604
F0.06438670714467722
sS'AGGCGT'
p1605
F-0.03548401690045001
sS'AGGAGA'
p1606
F0.016437535001400532
sS'CTGGCG'
p1607
F0.7833431130618944
sS'AGGAGG'
p1608
F0.16295207820005336
sS'CTGGCA'
p1609
F0.4032516602027658
sS'CTGGCC'
p1610
F0.6942011976381834
sS'GCGCCC'
p1611
F0.32014012052670865
sS'GCATCG'
p1612
F-0.08692539501654654
sS'ACAGCT'
p1613
F-0.18559190984024157
sS'GGAAAA'
p1614
F-0.13057772158173084
sS'AACGCT'
p1615
F0.1923720938995444
sS'AATTTT'
p1616
F-0.7016955008334397
sS'AAACAG'
p1617
F0.16866888555703718
sS'TGTCAC'
p1618
F-0.27591368247921627
sS'AAACAC'
p1619
F-0.2716151482150508
sS'GCTCTA'
p1620
F0.010029044822084481
sS'AAACAA'
p1621
F-0.5257084921536419
sS'AACGCG'
p1622
F0.031896416782071516
sS'AATTTA'
p1623
F-1.1110746830813745
sS'AATTTC'
p1624
F-0.42731324862888875
sS'AACGCC'
p1625
F0.5712366849758784
sS'TTTCAC'
p1626
F-0.3183165084663865
sS'ATTGGA'
p1627
F0.33218830437732044
sS'AATTTG'
p1628
F-0.5236006559215756
sS'ATTTAC'
p1629
F-0.3192725781577388
sS'ATTTAA'
p1630
I0
sS'ATTTAG'
p1631
I0
sS'CCCTCG'
p1632
F0.23298994480780844
sS'TAAATA'
p1633
I0
sS'GGAAAG'
p1634
F0.4303710457008413
sS'TGACCA'
p1635
I0
sS'CATTCT'
p1636
F-0.40336791491377844
sS'TAAATC'
p1637
I0
sS'TGACCG'
p1638
I0
sS'GCGCCA'
p1639
F-0.010048103878485988
sS'CATTCG'
p1640
F-0.3151946657372994
sS'CATTCC'
p1641
F-0.33374208417841095
sS'CATTCA'
p1642
F-0.5889985521154183
sS'TCCATA'
p1643
F-0.35739924298161746
sS'GCCTTC'
p1644
F0.6040852255259632
sS'ACAAAT'
p1645
F-0.6999627227941647
sS'GATTAA'
p1646
I0
sS'GTAGGC'
p1647
F-0.2521002395831293
sS'GATTAC'
p1648
F0.44183732742510307
sS'GTAGGA'
p1649
F-0.40197221639524194
sS'GTAGGG'
p1650
F-0.555099828110015
sS'GATTAG'
p1651
I0
sS'GCGGGT'
p1652
F0.3089660509802219
sS'ACAAAC'
p1653
F-0.3281114388412475
sS'TTTCAA'
p1654
F-0.7416183948892316
sS'ACAAAA'
p1655
F-0.8093156994461405
sS'ACAAAG'
p1656
F-0.05828021356701646
sS'GCGGGC'
p1657
F-0.1907109260086506
sS'GTCGGT'
p1658
F0.22109072150810077
sS'GCGGGA'
p1659
F0.3219310281445895
sS'CCCTCA'
p1660
F0.1852628613842288
sS'GATTAT'
p1661
F0.032831892602905415
sS'GTAGGT'
p1662
F-0.7357523614617495
sS'AACCTG'
p1663
F0.5239430503059226
sS'TAATGA'
p1664
I0
sS'GATGTT'
p1665
F0.16553904080613724
sS'TAATGC'
p1666
I0
sS'GGGATG'
p1667
F0.42273608503617005
sS'GCCCTT'
p1668
F-0.3787628578840435
sS'GCGCCG'
p1669
F0.10805120819950846
sS'GGCGTA'
p1670
F0.27874743536848356
sS'GCCCTC'
p1671
F0.34361412429092425
sS'GATGTG'
p1672
F0.5114077235020895
sS'GCCCTA'
p1673
F-0.02836734609222155
sS'GATGTA'
p1674
F-0.08431875142137153
sS'GCCCTG'
p1675
F0.4501724003029752
sS'GATGTC'
p1676
F0.41483353275258095
sS'AACCTC'
p1677
F0.354723541540897
sS'TGAAAT'
p1678
I0
sS'GCTCTT'
p1679
F0.011771064021081629
sS'TTCTAA'
p1680
I0
sS'ATCCGT'
p1681
F0.29900974479746245
sS'TTCTAC'
p1682
F0.45127888365794455
sS'GGCTTA'
p1683
F-0.3730727889738279
sS'TTGGAT'
p1684
F0.05381638408503308
sS'TGAAAC'
p1685
I0
sS'TGAAAG'
p1686
I0
sS'CCCTCC'
p1687
F0.1994669106641449
sS'ATCCGC'
p1688
F0.537480472581296
sS'ATCCGA'
p1689
F0.25090153411651056
sS'ATCCGG'
p1690
F0.3219310281445895
sS'TGGCTC'
p1691
F-0.026948854416687307
sS'TGGCTA'
p1692
F-0.34104132291991035
sS'TGGCTG'
p1693
F-0.09630680925651246
sS'GGGTGA'
p1694
I0
sS'AGTTGT'
p1695
F-0.5635329956468778
sS'AGCTAT'
p1696
F-0.030251489966772935
sS'ATTAGT'
p1697
F-0.8277078955458033
sS'GTCGGC'
p1698
F0.13075109829468506
sS'TGGCTT'
p1699
F-0.12943667572402295
sS'AGTTGG'
p1700
F-1.0276113938005647
sS'AGCTAA'
p1701
I0
sS'AGCTAC'
p1702
F0.35259984791104143
sS'AGTTGC'
p1703
F-0.8715730324287735
sS'AGTTGA'
p1704
I0
sS'AGCTAG'
p1705
I0
sS'TCCTAG'
p1706
I0
sS'TCCAGT'
p1707
F0.21492068823220728
sS'CTAATT'
p1708
F-1.4683861292940887
sS'CAGTGT'
p1709
F-0.15794516229557065
sS'TAACAA'
p1710
I0
sS'TCAGGT'
p1711
F-0.036061536243403886
sS'TCAAGG'
p1712
F-0.2144142154624512
sS'GTCGGG'
p1713
F0.22955676896941446
sS'TCAAGC'
p1714
F-0.2943893016992055
sS'CTGCAC'
p1715
F0.17379329669175103
sS'CTAATA'
p1716
F-0.9404121757370916
sS'CAGTGC'
p1717
F0.11006649943483404
sS'CTAATC'
p1718
F-0.5318915817272184
sS'CAGTGA'
p1719
I0
sS'CAGTGG'
p1720
F0.17357613691782647
sS'CTAATG'
p1721
F-0.13646152605279163
sS'TCAAGT'
p1722
F-0.5172857452576952
sS'CTGCAA'
p1723
F-0.004963171599316401
sS'GAGCCC'
p1724
F0.9017146247613997
sS'TCAGGC'
p1725
F0.27317792882766284
sS'CGAGCT'
p1726
F0.16834711008675957
sS'TCCTAA'
p1727
I0
sS'GATCAG'
p1728
F0.4710514487232117
sS'CAACCA'
p1729
F-0.15870111458722766
sS'GTTCAT'
p1730
F-0.407067996778589
sS'TTCCCT'
p1731
F0.2674075096115016
sS'TAACAG'
p1732
I0
sS'CGAGCG'
p1733
F0.3219310281445895
sS'GTTAGT'
p1734
F-0.5256276104173241
sS'CGAGCA'
p1735
F0.3231665751568965
sS'GAGCCG'
p1736
F0.64822420866626
sS'CGAGCC'
p1737
F0.6833769462802262
sS'GTTCAG'
p1738
F0.21131715614504198
sS'TTCCCC'
p1739
F0.07253050876593078
sS'GTTCAC'
p1740
F0.10057607560462986
sS'GTTCAA'
p1741
F-0.07769774927329118
sS'TGAGCA'
p1742
I0
sS'GGACCT'
p1743
F0.44934438388074494
sS'TACATG'
p1744
F0.1374608375161376
sS'AAGTAC'
p1745
F0.490439369165389
sS'AAGTAA'
p1746
I0
sS'TACATC'
p1747
F0.4730224833543777
sS'AAGTAG'
p1748
I0
sS'TACATA'
p1749
F-0.8124572245664563
sS'GCACAC'
p1750
F-0.23601341968967451
sS'GGACCG'
p1751
F0.17863228248521573
sS'ATTGGT'
p1752
F-0.0680400508561727
sS'GGACCA'
p1753
F0.5528737465992601
sS'TCATCA'
p1754
F-0.3408268035369845
sS'GGACCC'
p1755
F0.4853767616736263
sS'CACACG'
p1756
F-0.20674136720730285
sS'TACATT'
p1757
F-0.27666053473877394
sS'CACACC'
p1758
F0.15456333749376516
sS'GCACAA'
p1759
F-0.22100751106471628
sS'CACACA'
p1760
F-1.2158022294974529
sS'TCTGCC'
p1761
F0.3587760855520939
sS'TCTGCA'
p1762
F-0.1900903574602371
sS'TCTGCG'
p1763
F0.2078792242247773
sS'TAGATT'
p1764
I0
sS'CCCGTC'
p1765
F0.3525998479110415
sS'TTAAGG'
p1766
F-0.3518436445456433
sS'CCCGTA'
p1767
F0.05689868575212721
sS'CGTCGA'
p1768
F0.16604315517719526
sS'CCCGTG'
p1769
F0.5784390802602025
sS'TTAAGC'
p1770
F-1.028272923984685
sS'TTACGT'
p1771
F-0.5451613055758352
sS'TAGATC'
p1772
I0
sS'TGTCAA'
p1773
F-0.8239149065286642
sS'TAGATA'
p1774
I0
sS'TTTCGC'
p1775
F0.09032244123907689
sS'TAGATG'
p1776
I0
sS'TGGTTA'
p1777
F-0.7041656054200928
sS'TCTGCT'
p1778
F0.05951492548272828
sS'TTACGC'
p1779
F-0.2695130411008111
sS'TTAAGT'
p1780
F-0.651616636490122
sS'TTACGA'
p1781
F-0.17449538177045953
sS'TTACGG'
p1782
F-0.10280215711538469
sS'CCCGTT'
p1783
F0.4851713729339726
sS'AGTGAC'
p1784
F0.2531328652528507
sS'AGTGAA'
p1785
F0.006640693964775659
sS'AGTGAG'
p1786
F0.4155153138688996
sS'GCGGTC'
p1787
F0.5462543968888013
sS'CGGGCG'
p1788
F0.6205004252609139
sS'CCCTCT'
p1789
F0.1508031886204584
sS'TAAGAG'
p1790
I0
sS'CCTGAT'
p1791
F0.376711910720168
sS'GAAAGT'
p1792
F-0.19354390723439166
sS'CGGGCA'
p1793
F0.32476031816345385
sS'TAAGAC'
p1794
I0
sS'ATTTAT'
p1795
F-0.8288254117157196
sS'AGTGAT'
p1796
F0.3075632486150799
sS'TAAGAT'
p1797
I0
sS'CCTGAA'
p1798
F0.3171275297488225
sS'CCTGAC'
p1799
F0.4703508606024124
sS'CCTGAG'
p1800
F0.6381085381069694
sS'GTTAGG'
p1801
I0
sS'ATTGGG'
p1802
F0.005150831502264625
sS'TATACT'
p1803
F-1.0686428191443333
sS'GTTAGC'
p1804
F-0.03287563379292176
sS'CTCCAG'
p1805
F0.23480328557127678
sS'GTTAGA'
p1806
F-0.2783628180819705
sS'TGTAGC'
p1807
F-0.39445177770911105
sS'GCCAAA'
p1808
F0.47310130983284127
sS'TATACG'
p1809
F-0.6935811380336581
sS'GGTAGC'
p1810
F0.26554597876353114
sS'TATACC'
p1811
F0.08743675300158871
sS'TATACA'
p1812
F-0.9314179930341447
sS'ATTGGC'
p1813
F-0.008667198162100424
sS'TCTTGT'
p1814
F-1.117042596229995
sS'TCCACG'
p1815
F0.31746753066538175
sS'ACTAGT'
p1816
F-0.15737811272324842
sS'TTGACT'
p1817
F-0.204694570642381
sS'GTAATA'
p1818
F-0.976127728003626
sS'AACGCA'
p1819
F0.04028884183737117
sS'GTAATC'
p1820
F-0.8105906264985921
sS'TCTAAC'
p1821
F-0.4148275370808291
sS'CGTTCT'
p1822
F-0.464368575371631
sS'CCACCG'
p1823
F0.4792143209337174
sS'GGTAGG'
p1824
F-0.559012417473065
sS'CCACCA'
p1825
F0.2052440570898528
sS'CCACCC'
p1826
F0.28102177491563723
sS'GTTCGT'
p1827
F-0.22100751106471622
sS'TTTATG'
p1828
F-0.5146232383263737
sS'ACTAGG'
p1829
F-1.0631875480617605
sS'TTTATC'
p1830
F-0.4877955944411966
sS'ACTAGC'
p1831
F-0.7199100767560072
sS'TTTATA'
p1832
F-0.9455073840137512
sS'ACTAGA'
p1833
F-0.44749665383419723
sS'CCACCT'
p1834
F0.44577444391528676
sS'CGTTCG'
p1835
F-0.17919050297883943
sS'TCGTTG'
p1836
F0.11107766282969636
sS'CGTTCA'
p1837
F0.028869962151883616
sS'CGTTCC'
p1838
F0.40309084017430225
sS'TCTAAT'
p1839
F-0.41301419631736064
sS'TCGTCT'
p1840
F-0.02362091106775981
sS'CTTTGT'
p1841
F-0.47766581785340506
sS'AAACAT'
p1842
F-0.6685004290243421
sS'ACTGGA'
p1843
F0.19319540122081005
sS'ACTGGC'
p1844
F0.02701795729029031
sS'TAGTCC'
p1845
I0
sS'GTGACC'
p1846
F0.4217035964223329
sS'TAGTCA'
p1847
I0
sS'GTGACA'
p1848
F-0.06418452601193181
sS'TAGTCG'
p1849
I0
sS'GTGACG'
p1850
F0.6575821482512862
sS'TGTCAT'
p1851
F-0.661835801671808
sS'ACTGGT'
p1852
F-0.11546470078431087
sS'CTTTGG'
p1853
F-1.0570446665547095
sS'CCTATG'
p1854
F0.3644108089440287
sS'CTTTGC'
p1855
F-0.383569843350387
sS'CTACGC'
p1856
F0.23298994480780844
sS'GTGACT'
p1857
F0.16366345343184066
sS'TAGTCT'
p1858
I0
sS'GTGCAC'
p1859
F0.04780318091759756
sS'CGACGG'
p1860
F0.3073723079736646
sS'ACCTAG'
p1861
I0
sS'CGACGA'
p1862
F-0.0030992439231581426
sS'ACCTAA'
p1863
I0
sS'CGACGC'
p1864
F0.20496122120756485
sS'ACCTAC'
p1865
F0.49517444432744445
sS'CCGCAG'
p1866
F0.5340199404717897
sS'CCGCAA'
p1867
F-0.10833464571534566
sS'CCGCAC'
p1868
F0.1458397690889083
sS'CTACGG'
p1869
F-0.3442464627951218
sS'ACCTAT'
p1870
F-0.1702788973692961
sS'CGACGT'
p1871
F0.13930890192995055
sS'CGAAGA'
p1872
F0.0039626105643286325
sS'CCCCGT'
p1873
F0.014046185834859264
sS'CGAAGG'
p1874
F-0.33346937177892966
sS'GCGCTC'
p1875
F-0.03316622897399025
sS'GTGCAT'
p1876
F-0.44064524033283825
sS'GCGCTA'
p1877
F-0.7020692482591769
sS'CCGCAT'
p1878
F-0.24893019279362275
sS'GTTCGC'
p1879
F0.13607993179975206
sS'GAAGAT'
p1880
F0.6968332624288978
sS'GGATCT'
p1881
F0.5078045576350145
sS'TCATGA'
p1882
I0
sS'TCGGAA'
p1883
F0.44686976475288953
sS'TCGGAC'
p1884
F0.6505255095432267
sS'GAATCT'
p1885
F0.2802820464419516
sS'TCGGAG'
p1886
F0.6845570950550828
sS'GGATCG'
p1887
F0.550410356659959
sS'GAAGAG'
p1888
F0.8855244030482219
sS'GAAGAA'
p1889
F0.4891065599570298
sS'CGAGAA'
p1890
F0.36460293214198747
sS'GAAGAC'
p1891
F0.8738879405045803
sS'GGATCA'
p1892
F-0.026948854416687307
sS'GAATCA'
p1893
F0.07259367427864538
sS'GAATCC'
p1894
F0.4929407121888852
sS'TCGGAT'
p1895
F0.22581136018068498
sS'GAATCG'
p1896
F0.23962052370682158
sS'ATGGTC'
p1897
F0.04499946245241947
sS'CAGATG'
p1898
F0.26761340957122093
sS'ATGGTA'
p1899
F-0.3303404354642768
sS'TGACCC'
p1900
I0
sS'ATGGTG'
p1901
F0.6071482037713768
sS'CAGATC'
p1902
F0.5484977638404124
sS'ACGCCC'
p1903
F0.6494133591738592
sS'CAGATA'
p1904
F-0.1310917966032617
sS'TGTCAG'
p1905
F-0.14253997837723187
sS'ACGCCT'
p1906
F0.2027051409033407
sS'CAGATT'
p1907
F0.0672571371703835
sS'TGATTA'
p1908
I0
sS'CTCGAC'
p1909
F0.550410356659959
sS'ATGGTT'
p1910
F-0.26978388269481096
sS'TCGCAA'
p1911
F-0.4675855862436288
sS'TTGCGC'
p1912
F-0.07846957907510488
sS'GCTATT'
p1913
F-0.02562073569997818
sS'TGCGTC'
p1914
F-0.36299589880796074
sS'GCGTGG'
p1915
F-0.2776543440555174
sS'TTGTAG'
p1916
I0
sS'AATGGT'
p1917
F-0.009358199870173263
sS'TCCACC'
p1918
F0.39874983238175987
sS'CTACGT'
p1919
F-0.06804005085617276
sS'AATGGC'
p1920
F0.2986687204517861
sS'AATGGA'
p1921
F0.24336711621925292
sS'AATGGG'
p1922
F0.11187761605256136
sS'CCCCGA'
p1923
F0.20625569156056373
sS'AATAGA'
p1924
F-0.6267930527650898
sS'AATAGC'
p1925
F-0.4632138432850583
sS'GTGAAT'
p1926
F-0.15248994130449217
sS'AGCCAG'
p1927
F0.4719404858441213
sS'GGAGGG'
p1928
F0.24468523978759793
sS'AAAAGT'
p1929
F-0.4549195489640619
sS'AGCCAC'
p1930
F0.3249022676603552
sS'AGCCAA'
p1931
F-0.2407672769654827
sS'TGGTAG'
p1932
I0
sS'CGCCAT'
p1933
F-0.6420713185838917
sS'GAGTGT'
p1934
F-0.20743806986005695
sS'TGGTAC'
p1935
F0.3510892568858029
sS'TGGTAA'
p1936
I0
sS'AAAAGG'
p1937
F-0.08576881781660431
sS'GGAGGT'
p1938
F0.5955663312215617
sS'AGCCAT'
p1939
F-0.08411120327792172
sS'AAAAGC'
p1940
F-0.03212749496552833
sS'AAAAGA'
p1941
F-0.20066561613076375
sS'TCTATA'
p1942
F-0.771211969619961
sS'GAGTGG'
p1943
F0.36172997029625725
sS'CGCCAG'
p1944
F0.5611721865154045
sS'TGGTAT'
p1945
F-0.0818911627534025
sS'CGCCAA'
p1946
F-0.4424319377534207
sS'GAGTGC'
p1947
F0.1960063785546384
sS'CGCCAC'
p1948
F-0.411193252425735
sS'GAGTGA'
p1949
I0
sS'GCCAGG'
p1950
F0.2700864027907285
sS'GCCAGA'
p1951
F0.06913314216913886
sS'GCCAGC'
p1952
F0.7429037129237784
sS'GCCCGT'
p1953
F0.13607993179975206
sS'TACCGA'
p1954
F0.25781352853284056
sS'TACCGC'
p1955
F0.1982278385485965
sS'TACTGA'
p1956
I0
sS'CTTCAT'
p1957
F-0.16446724615813307
sS'GCCCGC'
p1958
F0.33955699134506584
sS'GCCAGT'
p1959
F0.4938663274291131
sS'GCCCGA'
p1960
F0.16900763414093423
sS'GCCCGG'
p1961
F0.6017717247386326
sS'TGCGAT'
p1962
F-0.11198420065337951
sS'CTTCAC'
p1963
F-0.23727224515624715
sS'CTTCAA'
p1964
F-0.14069381461818328
sS'CTTCAG'
p1965
F0.16066028142046854
sS'TCCGAG'
p1966
F0.6783967863502642
sS'GTGGGC'
p1967
F0.6161061771628217
sS'TCCGAC'
p1968
F0.5105388446222667
sS'AATTCA'
p1969
F-0.4617012615489354
sS'GGACTG'
p1970
F0.11241601360195858
sS'AATTCC'
p1971
F-0.5954192973631867
sS'AATTCG'
p1972
F0.0670699816053655
sS'TCCGAT'
p1973
F0.18723245424713333
sS'TAGCGG'
p1974
I0
sS'AATTCT'
p1975
F-0.3710760292177525
sS'TAGCGC'
p1976
I0
sS'GTCATC'
p1977
F0.4632911720911703
sS'GTCATA'
p1978
F-0.3076175674329607
sS'GTCATG'
p1979
F0.4206268504899487
sS'AGCAGG'
p1980
F-0.1459268265507988
sS'CCAGGT'
p1981
F0.43849083318011883
sS'TTGGAA'
p1982
F-0.14520600566847203
sS'AGCAGC'
p1983
F0.3826212760036965
sS'AGCAGA'
p1984
F-0.12915729682606203
sS'GGGGTG'
p1985
F0.11506742674076487
sS'CCAGGG'
p1986
F0.3844587289551576
sS'AGCAGT'
p1987
F0.22916834708331055
sS'CCAGGA'
p1988
F0.5351984879573324
sS'CCAGGC'
p1989
F0.5145913886334637
sS'TCCCCG'
p1990
F0.1289013471726286
sS'ATAGAG'
p1991
F-0.02777687083891758
sS'CATCTG'
p1992
F-0.1542491764085956
sS'ACGGTC'
p1993
F0.24700065925062306
sS'CATCTA'
p1994
F-0.37654517911503255
sS'ATAGAC'
p1995
F0.018440433932951507
sS'CATCTC'
p1996
F-0.05518473017058569
sS'CAAGCT'
p1997
F0.051088639475496224
sS'TCCAAC'
p1998
F0.34297363088416694
sS'GGGGTC'
p1999
F0.14583976908890822
sS'CAAGCC'
p2000
F0.4744741654254812
sS'CATCTT'
p2001
F-0.4228951588288621
sS'CAAGCA'
p2002
F0.08903754538495753
sS'CAAGCG'
p2003
F-0.03893766915186565
sS'GTTCTT'
p2004
F0.02716864062560283
sS'ACATGA'
p2005
I0
sS'CGTAAT'
p2006
F-0.001093261225559574
sS'ACATGC'
p2007
F-0.4832122061007317
sS'TCTTGA'
p2008
I0
sS'ACATGG'
p2009
F-0.40313560975611157
sS'AGGGAT'
p2010
F0.22668657607306975
sS'GTACAT'
p2011
F-1.0406542503665401
sS'TGGCGG'
p2012
F-0.28625451581743505
sS'CGTAAG'
p2013
F0.2329899448078085
sS'GAGTCA'
p2014
F0.06583677353990987
sS'ACATGT'
p2015
F-0.4437036648170581
sS'CGTAAC'
p2016
F-0.00028826658932977164
sS'CGTAAA'
p2017
F0.2217089343981193
sS'AGGGAG'
p2018
F0.2811369571154645
sS'TTATTT'
p2019
F-1.0240978957196645
sS'AGGGAC'
p2020
F0.4108080231639957
sS'AGGGAA'
p2021
F0.051569852247060295
sS'CCCTTT'
p2022
F-0.2836398511955276
sS'TGTTGT'
p2023
F-1.248134052365528
sS'TCTTGG'
p2024
F-0.33996766481584684
sS'GTTGTT'
p2025
F-0.4543655810636006
sS'ATCCTT'
p2026
F0.16424854732644376
sS'GCGGGG'
p2027
F-0.003099243923158191
sS'TTGTCC'
p2028
F-0.23927880711744196
sS'TTGTCA'
p2029
F-0.5459648108594362
sS'ATCCTC'
p2030
F0.43353998749827505
sS'CTATGA'
p2031
I0
sS'ATCCTA'
p2032
F0.08030532048155288
sS'GTTGTC'
p2033
F-0.0771686460546868
sS'ATCCTG'
p2034
F0.494511399188116
sS'GTTGTG'
p2035
F0.15712077949859732
sS'TTGTCT'
p2036
F-0.28898307651150507
sS'CTATGC'
p2037
F-1.0276113938005647
sS'CTGTGG'
p2038
F0.037120037577306496
sS'AAGGGG'
p2039
F-0.01192410887724135
sS'TGACTC'
p2040
I0
sS'TGGGCA'
p2041
F-0.0535436388992832
sS'TGGGCG'
p2042
F-0.17133686252562977
sS'TGACTG'
p2043
I0
sS'AAGCCG'
p2044
F0.5319269509659458
sS'AAGCCC'
p2045
F0.3283946028185478
sS'AAGCCA'
p2046
F0.21971200770923532
sS'CAAAAT'
p2047
F-0.6355891910559712
sS'CTATGG'
p2048
F-0.44749665383419723
sS'TGGGCT'
p2049
F0.12876176996368063
sS'CAAAAC'
p2050
F-0.20340831568340478
sS'CAAAAA'
p2051
F-0.6526643920813158
sS'AAGCCT'
p2052
F0.3286598748304011
sS'CAAAAG'
p2053
F-0.06021471334421619
sS'TCAATG'
p2054
F-0.4001042802601227
sS'CCCTTA'
p2055
F-0.5909187961365103
sS'TCAATC'
p2056
F-0.2711147995974474
sS'CGTCGT'
p2057
F0.46707315084117645
sS'CAGTTC'
p2058
F0.3175219092395344
sS'CAGTTA'
p2059
F-0.377433610004956
sS'CAGTTG'
p2060
F-0.04321646713114062
sS'GACCCC'
p2061
F0.6806562201891951
sS'CTCTGT'
p2062
F-0.6516166364901219
sS'TCAATT'
p2063
F-0.5275163064779265
sS'TGGCGT'
p2064
F-0.645276458459103
sS'GTTTGG'
p2065
F-0.3006126658643022
sS'CTCTGC'
p2066
F-0.03232449858963822
sS'GACCCT'
p2067
F0.5290565209402395
sS'CTCTGA'
p2068
I0
sS'CTCTGG'
p2069
F-0.19358155575263328
sS'CAGTTT'
p2070
F-0.03212749496552833
sS'GCGAAG'
p2071
F-0.24680389977318087
sS'CTACTC'
p2072
F-0.06804005085617276
sS'TGCTGG'
p2073
F0.031662862336053824
sS'GCGAAC'
p2074
F0.09688621074146517
sS'GAGTCT'
p2075
F0.4479381404009154
sS'GCGAAA'
p2076
F-0.3110780995424672
sS'TAGGGA'
p2077
I0
sS'GCTGGT'
p2078
F0.2308662511779529
sS'GTGATT'
p2079
F-0.1689059290463477
sS'CTACTA'
p2080
F-0.6760904058733226
sS'TGCTGT'
p2081
F-0.5832848410147407
sS'GCGAAT'
p2082
F-0.4237823797337555
sS'TAATGG'
p2083
I0
sS'GTGATG'
p2084
F0.3139474488812363
sS'CTACTG'
p2085
F-0.4639070509053451
sS'GTGATC'
p2086
F0.3584836904142038
sS'GCTGGC'
p2087
F0.3285616070436026
sS'GTGATA'
p2088
F-0.7122232480897162
sS'GCTGGA'
p2089
F0.34677931927864003
sS'TGATAA'
p2090
I0
sS'TGTAGT'
p2091
F-0.7609359074799984
sS'TGATAC'
p2092
I0
sS'TGATAG'
p2093
I0
sS'CTTGTT'
p2094
F-0.36036645899827563
sS'GACGGT'
p2095
F0.5367090789825709
sS'GCTAGG'
p2096
F-0.4255514024726022
sS'GCTAGA'
p2097
F-0.3690700465201539
sS'ATGAAT'
p2098
F-0.1786713224245958
sS'CTATGT'
p2099
F-0.8715730324287735
sS'AAGGGT'
p2100
F0.47835416125086555
sS'TGATAT'
p2101
I0
sS'GTAGTG'
p2102
F-0.07672623004126544
sS'GCTAGT'
p2103
F-0.23437147262269778
sS'ATGAAC'
p2104
F0.24992836672408805
sS'GACGGG'
p2105
F0.589368577512779
sS'ATGAAA'
p2106
F-0.44888576234008815
sS'GACGGA'
p2107
F0.6829589534838562
sS'ATGAAG'
p2108
F0.553660950978867
sS'GACGGC'
p2109
F0.7002404455011767
sS'CTTGTC'
p2110
F-0.1435194230365364
sS'CTAACT'
p2111
F-0.24413130991185408
sS'CCATAG'
p2112
I0
sS'GGTGAA'
p2113
F0.22790191778626254
sS'GGTGAC'
p2114
F0.2875487159471012
sS'GCGTCT'
p2115
F0.23645047691731488
sS'TGTAAA'
p2116
F-0.4191489108634716
sS'GGTGAG'
p2117
F0.4845557888735676
sS'GGAATG'
p2118
F0.18863566865657136
sS'CGTCCT'
p2119
F0.18965192837054623
sS'GGAATC'
p2120
F0.3856001080139668
sS'GGAATA'
p2121
F-0.4562202222390541
sS'GCGTCA'
p2122
F-0.29349292474135436
sS'GCGTCC'
p2123
F0.2923627975018807
sS'GGTGAT'
p2124
F0.3665288531780259
sS'GCGTCG'
p2125
F-0.4562202222390541
sS'CGTCCG'
p2126
F0.11168549285460248
sS'GGAATT'
p2127
F0.02586445201215846
sS'CGTCCC'
p2128
F0.3539259389624344
sS'CGTCCA'
p2129
F0.22955676896941446
sS'TTTCGA'
p2130
F-0.20546449901253247
sS'CCGTAT'
p2131
F0.16950368728670173
sS'GAAGTC'
p2132
F0.2652943840001542
sS'CTACTT'
p2133
F-0.5619238997642463
sS'CGTGGT'
p2134
F0.585172462919171
sS'GCCGTA'
p2135
F0.029624600885465213
sS'CCGTAC'
p2136
F0.4834635670293459
sS'CCGTAA'
p2137
I0
sS'CCGTAG'
p2138
I0
sS'CTAACA'
p2139
F-0.45786216930603085
sS'GCCGTT'
p2140
F-0.3041292395871394
sS'TTGGTG'
p2141
F-0.22112867007844755
sS'GAAGTT'
p2142
F0.3216843399914624
sS'GGCGCG'
p2143
F0.0039626105643286325
sS'ATGCCC'
p2144
F0.1442633808539532
sS'TTAGTT'
p2145
F-0.836842533060293
sS'ATGCCA'
p2146
F-0.3383521844091292
sS'GGCGCC'
p2147
F-0.12026358366607966
sS'ATGCCG'
p2148
F0.33932343689904804
sS'GGCGCA'
p2149
F0.22745745620784744
sS'TATTAC'
p2150
F-0.18957253877256122
sS'ACTATG'
p2151
F-0.25819875779457996
sS'CCATAT'
p2152
F-0.15255013040886453
sS'TTTAAG'
p2153
F-0.15038780592651702
sS'ACTATC'
p2154
F-0.011424632707289308
sS'TTTAAA'
p2155
F-0.49443941725585794
sS'ACTATA'
p2156
F-0.6843404812987455
sS'TTTAAC'
p2157
F-0.3457644457523107
sS'TATTAT'
p2158
F-1.2477354341806792
sS'TTAGTG'
p2159
F-0.27106194321304544
sS'GGCGCT'
p2160
F0.2717920288687605
sS'TTAGTC'
p2161
F-1.0457636561450205
sS'ATGCCT'
p2162
F0.23838497669451464
sS'TTAGTA'
p2163
F-1.0175655839437217
sS'TTTAAT'
p2164
F-0.8656858216217462
sS'ACTATT'
p2165
F-0.3056276694183107
sS'GGGCAT'
p2166
F-0.5106504544476713
sS'TCGATA'
p2167
F-0.4148275370808291
sS'TTCTAG'
p2168
I0
sS'TTTCCA'
p2169
F-0.6402804109660107
sS'TTTCCC'
p2170
F-0.30552793477970414
sS'GGGACT'
p2171
F0.2755906821550016
sS'TATCGA'
p2172
F0.028367597165962755
sS'GTTTGT'
p2173
F-0.7265813981365833
sS'TTTCCT'
p2174
F-0.24273035875539173
sS'GGGCAG'
p2175
F0.33888125683515463
sS'GTCTGT'
p2176
F-0.9756305390747928
sS'GGGCAA'
p2177
F-0.0665294598309342
sS'GGGCAC'
p2178
F0.032571836019144845
sS'GTACGG'
p2179
F-0.2107075544249043
sS'GTTTGA'
p2180
I0
sS'GTACGC'
p2181
F-0.1426736691530769
sS'GTACGA'
p2182
F-0.6290088457446497
sS'CCGCTC'
p2183
F0.34368824230149814
sS'GCATGT'
p2184
F-0.8666139726051193
sS'CCGCTA'
p2185
F0.19034568967127627
sS'CCGCTG'
p2186
F0.28641032871101185
sS'TGAAAA'
p2187
I0
sS'GCGCGG'
p2188
F-0.28258956173102967
sS'GCGCGC'
p2189
F-0.23601341968967446
sS'TGTTTT'
p2190
F-1.3732719609479234
sS'GCGCGA'
p2191
F0.1371535899038156
sS'GCATGG'
p2192
F-0.1723922566826952
sS'TGGATC'
p2193
F-0.12053092407581625
sS'GCATGC'
p2194
F-0.32465090673174113
sS'CCGCTT'
p2195
F0.2264590776488507
sS'GCATGA'
p2196
I0
sS'TTTCAG'
p2197
F-0.22558022020275756
sS'GTCGAC'
p2198
F0.500851577219135
sS'GCGCGT'
p2199
F-0.07204279330984668
sS'GTCGAG'
p2200
F0.3285616070436026
sS'CGTGGC'
p2201
F0.15380869876018363
sS'CTTCCG'
p2202
F0.10805120819950846
sS'TGCGCT'
p2203
F-0.31451127538086115
sS'GAGCTC'
p2204
F0.623231528010342
sS'ATTGAT'
p2205
F0.10190431378889202
sS'GAGCTG'
p2206
F0.8769758251447712
sS'AAACGA'
p2207
F0.20591466721488746
sS'AAACGC'
p2208
F0.023623890816081607
sS'GTAACA'
p2209
F-0.4270619934978407
sS'GTAGTA'
p2210
F-0.704862148443347
sS'AAACGG'
p2211
F0.13333122337160097
sS'ATTGAA'
p2212
F0.0031258193961922064
sS'TGCGCG'
p2213
F-0.3156496626169506
sS'ATTGAC'
p2214
F0.3152622678325751
sS'GAGCTT'
p2215
F0.3599957699538871
sS'TGCGCC'
p2216
F-0.1551902265750729
sS'ATTGAG'
p2217
F0.44812495199049773
sS'CGCTGA'
p2218
I0
sS'CACGCA'
p2219
F-0.8715730324287735
sS'AAACGT'
p2220
F-0.051351253012911144
sS'ATTTCG'
p2221
F-0.4462360013324532
sS'ATTTCA'
p2222
F-0.702578386045394
sS'ATTTCC'
p2223
F-0.41973487157557327
sS'ATCAGT'
p2224
F0.06473410800863955
sS'ATCGGG'
p2225
F0.297930751740823
sS'CATAGT'
p2226
F-0.3568355901031423
sS'ATCGGC'
p2227
F0.8076456475559755
sS'ATCGGA'
p2228
F0.5340199404717896
sS'ATTTCT'
p2229
F-0.5518121933191974
sS'TACGCC'
p2230
F0.46937710575074076
sS'TGGGTC'
p2231
F-0.08629491658706148
sS'TTTCGG'
p2232
F-0.2840592568118053
sS'TGGGTA'
p2233
I0
sS'CATAGG'
p2234
F-0.005096003679233511
sS'ATCGGT'
p2235
F0.36768851870526464
sS'ATCAGG'
p2236
F-0.04685075178623464
sS'CATAGC'
p2237
F-0.5273766843960606
sS'ATCAGC'
p2238
F0.30527748290753276
sS'ACGGGT'
p2239
F0.09909636554658206
sS'GTCTGA'
p2240
I0
sS'GATTCT'
p2241
F0.17974443285458336
sS'CTTTTG'
p2242
F-0.44261384120399777
sS'GCGTTC'
p2243
F0.3633237133028146
sS'CTTTTC'
p2244
F-0.1426736691530769
sS'CTTTTA'
p2245
F-0.9806753557543467
sS'GATTCC'
p2246
F0.42657193602382504
sS'ACGGGG'
p2247
F0.008255506953963805
sS'ACGGGA'
p2248
F0.041104418568895275
sS'ACGGGC'
p2249
F0.667076567302269
sS'TACTAT'
p2250
F-0.32062341744869766
sS'CTTTTT'
p2251
F-0.4671366367281526
sS'CGTAGA'
p2252
F-0.43601683615076714
sS'TCACGA'
p2253
F-0.1266347661220201
sS'TCACGC'
p2254
F-0.14376076479429117
sS'TCACGG'
p2255
F0.05005926122182167
sS'TCTCAT'
p2256
F-0.20193363011739912
sS'TCACGT'
p2257
F-0.32731529841315277
sS'AGTGGA'
p2258
F0.20032082805444026
sS'TTCCAC'
p2259
F-0.03434477645953295
sS'TTCCAA'
p2260
F-0.7109440292505433
sS'TTCCAG'
p2261
F0.12101618536387611
sS'CGAGGC'
p2262
F0.07889297945829511
sS'ACCCTT'
p2263
F-0.08576881781660431
sS'TGAAGT'
p2264
I0
sS'ATGCTT'
p2265
F-0.21836051865342973
sS'TTCCAT'
p2266
F-0.15271560744721754
sS'ACCCTA'
p2267
F-0.12186516316488091
sS'ACCCTC'
p2268
F0.3351407931868723
sS'TGAAGG'
p2269
I0
sS'ACCCTG'
p2270
F0.2785240902970128
sS'CTGACT'
p2271
F-0.058410066903879725
sS'CCCCTT'
p2272
F-0.145206005668472
sS'AGTTAT'
p2273
F-0.41591191837304897
sS'CTGACG'
p2274
F0.5380599182735297
sS'CTGACC'
p2275
F0.4761418172352611
sS'CTGACA'
p2276
F0.013830333702233261
sS'AGTTAA'
p2277
I0
sS'CCCCTG'
p2278
F0.2700864027907285
sS'AGTTAC'
p2279
F-0.3091040303167501
sS'CCCCTC'
p2280
F0.36290632309105886
sS'AGTTAG'
p2281
I0
sS'CCCCTA'
p2282
F-0.145206005668472
sS'ACACAG'
p2283
F-0.07013304036201656
sS'ACACAA'
p2284
F-0.42856734849515765
sS'ACACAC'
p2285
F-1.1383111959149916
sS'AATGTT'
p2286
F-0.34927338164007304
sS'CTGCAG'
p2287
F0.445698632856047
sS'CATGGG'
p2288
F0.17963527249661176
sS'CATGGA'
p2289
F-0.0690442003946261
sS'CATGGC'
p2290
F0.05125841839943444
sS'AATGTC'
p2291
F-0.07426831895114683
sS'ACACAT'
p2292
F-0.6518413684392005
sS'AATGTA'
p2293
F-0.4647720073392423
sS'AATGTG'
p2294
F0.05656371120262162
sS'CATGGT'
p2295
F0.06646503028606524
sS'CTGCAT'
p2296
F-0.2364684165693257
sS'GCACAG'
p2297
F0.17172028806888576
sS'ACATTT'
p2298
F-0.6053435316603804
sS'CGAGAT'
p2299
F0.494511399188116
sS'ATTACT'
p2300
F-0.43429001685026114
sS'ACATTG'
p2301
F-0.4899688053267138
sS'GTACCA'
p2302
F0.035964778916484204
sS'ACATTA'
p2303
F-0.5332713906143423
sS'ACATTC'
p2304
F-0.3530007353239904
sS'ATTACA'
p2305
F-0.2748398634851518
sS'ATGCTC'
p2306
F0.2695067786335709
sS'ATTACC'
p2307
F0.08930177218666953
sS'CGAGAC'
p2308
F0.7323875942386231
sS'ATTACG'
p2309
F-0.3609521562979745
sS'AAGTCT'
p2310
F0.2087951355981451
sS'ATGCTA'
p2311
F-0.4079881125505236
sS'GGACAT'
p2312
F-0.048101720913985194
sS'GCTATA'
p2313
F-0.26761240576137685
sS'GCTATC'
p2314
F-0.021947327178193688
sS'AAGTCG'
p2315
F-0.04065425036654021
sS'AAGTCA'
p2316
F-0.24128346703902773
sS'GCTATG'
p2317
F0.008517051365303308
sS'AAGTCC'
p2318
F0.41428239754929747
sS'GGACAG'
p2319
F0.4305563170154139
sS'GGACAC'
p2320
F0.24345537848597334
sS'GGACAA'
p2321
F-0.1357248091977491
sS'GCACCT'
p2322
F0.3421344142328765
sS'AGGGTT'
p2323
F-0.43453712609271933
sS'GAGGCG'
p2324
F0.4985160842766675
sS'TGTTGG'
p2325
F-0.7172125868297763
sS'GAGGCA'
p2326
F0.4459307492910618
sS'AGCGCT'
p2327
F-0.10168715141459325
sS'GAGGCC'
p2328
F0.8987915858911726
sS'TGTTGC'
p2329
F-0.6155412710448424
sS'TTCTCA'
p2330
F-0.38187123168487946
sS'ACTCGA'
p2331
F0.0817222694771593
sS'TAAAAT'
p2332
I0
sS'ACTCGC'
p2333
F0.0751490383244205
sS'ACTCGG'
p2334
F-0.7239251544928433
sS'AGCGCA'
p2335
F0.05051188709072652
sS'GAGGCT'
p2336
F0.7675731958818593
sS'AGCGCC'
p2337
F0.47475997950746734
sS'AGGGTG'
p2338
F0.15582398999550914
sS'AGGGTA'
p2339
F-0.18251335378630776
sS'AGCGCG'
p2340
F0.07328910194029656
sS'AGGGTC'
p2341
F0.23702992260954853
sS'TAAAAG'
p2342
I0
sS'ACTCGT'
p2343
F0.19269534994863546
sS'TAAAAC'
p2344
I0
sS'TAAAAA'
p2345
I0
sS'ACGTTC'
p2346
F0.11719458763937825
sS'AGCTGC'
p2347
F-0.1854629969947751
sS'ACGTTA'
p2348
F-0.4879346354162607
sS'AGCTGA'
p2349
I0
sS'ACGTTG'
p2350
F-0.1050236171093428
sS'AGCTGG'
p2351
F-0.3293029196486663
sS'TAGGGG'
p2352
I0
sS'TAAATG'
p2353
I0
sS'AGTGCG'
p2354
F0.15988284647237672
sS'AGTGCA'
p2355
F0.005150831502264625
sS'AGAGTT'
p2356
F-0.32465090673174113
sS'AGTGCC'
p2357
F0.404925244092332
sS'CCAAAA'
p2358
F-0.051539728433859164
sS'TTCGTG'
p2359
F0.24384787239601677
sS'TAGGGT'
p2360
I0
sS'GCATAG'
p2361
I0
sS'AGCTGT'
p2362
F-0.17584203240573154
sS'ACGTTT'
p2363
F-0.09849791492706805
sS'AGTGCT'
p2364
F0.14769441026436184
sS'AGAGTC'
p2365
F0.04735336784589679
sS'AGAGTA'
p2366
F-0.4522540350214528
sS'AGAGTG'
p2367
F0.18921102022922118
sS'TTCGTA'
p2368
F-0.42819149863881056
sS'GTTAAA'
p2369
F-0.320055155042592
sS'CCTGGC'
p2370
F0.5221207171720819
sS'GTTAAC'
p2371
F-0.5954192973631867
sS'CCTGGA'
p2372
F0.5389720406710421
sS'CCTGGG'
p2373
F0.34871475954419795
sS'GTTAAG'
p2374
F-0.2930939403477405
sS'TTCGTC'
p2375
F0.34995975174483307
sS'GCACCC'
p2376
F-0.04703167013165602
sS'GTCTGG'
p2377
F0.19871227193056343
sS'GTCTGC'
p2378
F0.2693186909381653
sS'GTTAAT'
p2379
F-0.25160644250673253
sS'CCTGGT'
p2380
F0.3653022792849025
sS'TCTAAA'
p2381
F-0.07924827244780774
sS'GGAAGG'
p2382
F-0.18995233283428484
sS'CCACAT'
p2383
F-0.17637952564501097
sS'GGAAGC'
p2384
F0.3165359962578833
sS'GCACCG'
p2385
F0.5575010363213124
sS'GGAAGA'
p2386
F0.06875729231279175
sS'GCGTTA'
p2387
F-0.11919257330355401
sS'CAATGA'
p2388
I0
sS'CCCGCA'
p2389
F-0.1426736691530769
sS'CAATGC'
p2390
F-0.3320120063781101
sS'GCGTTG'
p2391
F0.24635390636578988
sS'CAATGG'
p2392
F-0.3350254267646288
sS'CCACAG'
p2393
F0.12257746139610491
sS'GGAAGT'
p2394
F0.16171100472283395
sS'CCACAC'
p2395
F-0.42066914430961255
sS'CCACAA'
p2396
F-0.14626785089647504
sS'ATTTGT'
p2397
F-0.9501668749363223
sS'TCCTCG'
p2398
F0.4151553515756829
sS'TGTATG'
p2399
F-0.8988730311893622
sS'CAATGT'
p2400
F-0.6526643920813158
sS'GCGTTT'
p2401
F-0.019424796474151663
sS'TCCTCC'
p2402
F0.2528743016582839
sS'TGTATC'
p2403
F-0.09327587427224612
sS'CGTTAG'
p2404
I0
sS'TAACCG'
p2405
I0
sS'TCAAAC'
p2406
F-0.06881765980501736
sS'TCAGGG'
p2407
F-0.033277944596960804
sS'CGTTAC'
p2408
F0.037243997755657225
sS'TAACCC'
p2409
I0
sS'CGTTAA'
p2410
I0
sS'TAACCA'
p2411
I0
sS'ACCGCT'
p2412
F0.2738261987792136
sS'TCGCGA'
p2413
I0
sS'TAGTGT'
p2414
I0
sS'TCAGGA'
p2415
F0.19554818141499944
sS'TTCGTT'
p2416
F-0.2521002395831293
sS'TACCCT'
p2417
F0.12076317371564635
sS'TAACCT'
p2418
I0
sS'CGTTAT'
p2419
F0.1000822785282332
sS'GTGAAA'
p2420
F0.1458397690889083
sS'GTGAAC'
p2421
F0.2963047877228779
sS'TGCATA'
p2422
F-1.1815191652974222
sS'ACCGCG'
p2423
F0.17863228248521573
sS'ACCGCA'
p2424
F0.14763809249447116
sS'CCCTAT'
p2425
F-0.013861073778603522
sS'ACCGCC'
p2426
F0.6168354711745085
sS'AGATCC'
p2427
F0.0568986857521273
sS'AGGCTT'
p2428
F-0.05889667141630295
sS'CCTTCT'
p2429
F-0.1778542112110167
sS'GGGACG'
p2430
F0.816164591975397
sS'TGTCGC'
p2431
F0.3067761589687271
sS'GTTGCC'
p2432
F0.20842175331707136
sS'GTGCCG'
p2433
F0.3148112870216417
sS'GTGCCA'
p2434
F0.2205806868259885
sS'GTTGCG'
p2435
F-0.7789092784918993
sS'GTGCCC'
p2436
F0.4375697416749272
sS'CCGCCG'
p2437
F0.5920118874494764
sS'AGGCTA'
p2438
F-0.5826984658898193
sS'CCTTCC'
p2439
F-0.06964557757159118
sS'AGGCTC'
p2440
F0.00634231230968339
sS'CCGCCC'
p2441
F0.13801443157695173
sS'TGTCGA'
p2442
F0.011141195191452081
sS'CCGCCA'
p2443
F0.13333122337160097
sS'AGGCTG'
p2444
F0.1468279253329743
sS'GTGCCT'
p2445
F0.5244746225655592
sS'TCCAAA'
p2446
F0.16566730532084814
sS'GTTGCT'
p2447
F-0.023620911067759914
sS'GGATAT'
p2448
F0.2631686454816111
sS'TCGGGT'
p2449
F0.5685307915999535
sS'ATTTGA'
p2450
I0
sS'GCAGTT'
p2451
F-0.26608588579990433
sS'GAAGCT'
p2452
F0.4754252252059423
sS'GGATAA'
p2453
I0
sS'GGATAC'
p2454
F0.5873493821734455
sS'TCGGGG'
p2455
F-0.016887528408791416
sS'GGATAG'
p2456
I0
sS'GAAGCG'
p2457
F0.3539259389624344
sS'CCGCCT'
p2458
F0.1969922915362896
sS'GCAGTG'
p2459
F0.313330856382672
sS'GAAGCC'
p2460
F0.6154340679517064
sS'GCAGTA'
p2461
F-0.15377788555181512
sS'GAAGCA'
p2462
F0.3913524369030581
sS'GCAGTC'
p2463
F0.1384994059231649
sS'CGCCCG'
p2464
F-0.6016426615282834
sS'GAGAGA'
p2465
F0.02533930747186835
sS'CGCCCC'
p2466
F-0.07993927415588051
sS'CGCCCA'
p2467
F-0.6907144973820549
sS'AGTTTG'
p2468
F-0.23834834188331627
sS'ACGCAG'
p2469
F0.07177323833534718
sS'ACGCAC'
p2470
F-0.3320120063781101
sS'ACGCAA'
p2471
F-0.3605422511406893
sS'CTCGCA'
p2472
F0.04892975608085185
sS'ACGTAC'
p2473
F0.07538209144614035
sS'CCCTAG'
p2474
I0
sS'ACGCAT'
p2475
I0
sS'AGTTTC'
p2476
F-0.12393253284463088
sS'GCCGGG'
p2477
F0.2875487159471012
sS'TACCCG'
p2478
F0.17650858885536022
sS'GCCGGC'
p2479
F0.3097651210895549
sS'CATGTT'
p2480
F-0.35573934766520277
sS'GCCGGA'
p2481
F0.673761177488627
sS'TTGGGG'
p2482
F0.03517943605889091
sS'AGATCT'
p2483
F0.015506000593902135
sS'ACGTAG'
p2484
I0
sS'GCCACT'
p2485
F0.36578232186931803
sS'CATGTA'
p2486
F-0.6463396033765648
sS'GTTGCA'
p2487
F-0.04321646713114052
sS'CATGTC'
p2488
F-0.28732658370792874
sS'GCCGGT'
p2489
F0.2734186018634166
sS'CATGTG'
p2490
F-0.19426941094596725
sS'GTGCGA'
p2491
F0.3073723079736646
sS'TACCCC'
p2492
F0.3862729113737831
sS'GATTGG'
p2493
F-0.4933620302436207
sS'GGCCTG'
p2494
F0.6562860872187627
sS'GGCCTC'
p2495
F0.5646507957745692
sS'GGCCTA'
p2496
F0.22581136018068498
sS'TTTGTT'
p2497
F-0.5783740185330882
sS'AATCGG'
p2498
F0.1634657322893846
sS'AATCGC'
p2499
F-0.2376491823839337
sS'AATCGA'
p2500
F0.16811616380006048
sS'TTCCCA'
p2501
F0.010483671247680537
sS'GGCCTT'
p2502
F0.4039415642110786
sS'TCACTA'
p2503
F-0.24009133211011388
sS'TCACTC'
p2504
F-0.24278882203634472
sS'AATCGT'
p2505
F-0.2599255770950858
sS'AGCCGA'
p2506
F-0.23601341968967446
sS'CCTTCA'
p2507
F-0.01185842113879606
sS'AGCCGC'
p2508
F0.48238026768516007
sS'TAATTG'
p2509
I0
sS'AAAAAT'
p2510
F-0.6958372183378821
sS'AGCCGG'
p2511
F0.4001263612105633
sS'GTTTTT'
p2512
F-0.9407553559065912
sS'TGGTGA'
p2513
I0
sS'GATGGA'
p2514
F0.4236196151900656
sS'TGGTGC'
p2515
F-0.5245747747940577
sS'CCAAGT'
p2516
F0.18587740016216728
sS'GGGCTG'
p2517
F0.2387729128363462
sS'TGGTGG'
p2518
F-0.36604359188996605
sS'GATGGG'
p2519
F0.34995975174483307
sS'AAAAAA'
p2520
F-0.7678708968653276
sS'AAAAAC'
p2521
F-0.21287361618141196
sS'GAGCGA'
p2522
F0.28895909128698044
sS'AGCCGT'
p2523
F0.5213389087127007
sS'AAAAAG'
p2524
F0.07826674361524691
sS'TGACAG'
p2525
I0
sS'CCAAGG'
p2526
I0
sS'CTACAT'
p2527
F-0.46182409975705263
sS'TCTCAG'
p2528
F0.40064803632662693
sS'CCAAGC'
p2529
F-0.10280215711538469
sS'TGGTGT'
p2530
F-0.6958609043285566
sS'CCAAGA'
p2531
F0.20609367160647296
sS'AGAACT'
p2532
F-0.040956473400242104
sS'GCATTA'
p2533
F-0.6855063732255354
sS'CCTTCG'
p2534
F0.22699958111862104
sS'TACCAT'
p2535
F-0.4006387966130156
sS'AGATAG'
p2536
I0
sS'CACTGT'
p2537
F-0.402974710285829
sS'ACCCGA'
p2538
F0.3743190976042777
sS'ATGTCT'
p2539
F-0.0019302136563065621
sS'ACCCGC'
p2540
F0.5151345963114158
sS'AGATAA'
p2541
I0
sS'TACCAC'
p2542
F0.1759514438374443
sS'AGAACG'
p2543
F-0.04138785608473256
sS'TACCAA'
p2544
F-0.11044389940926004
sS'AGAACA'
p2545
F-0.41046273167837904
sS'TACCAG'
p2546
F0.546572677945116
sS'AGAACC'
p2547
F-0.004653071991779764
sS'ATGTCA'
p2548
F-0.2409923583293719
sS'CACTGG'
p2549
F-0.06930806484280828
sS'AGATAT'
p2550
F-0.2395111122751088
sS'TGACAA'
p2551
I0
sS'ACCAGG'
p2552
F0.05253388034967707
sS'CACTGC'
p2553
F-0.34178307285582055
sS'ATGTCG'
p2554
F0.27815210356600234
sS'CACTGA'
p2555
I0
sS'TAGGTT'
p2556
I0
sS'GTTTAC'
p2557
F-0.22861914373360642
sS'AATTAT'
p2558
F-0.7864084466442487
sS'CTGTTG'
p2559
F-0.12162287892880441
sS'TGCTAT'
p2560
F-0.49701429326817914
sS'CTGTTC'
p2561
F0.1007613943537202
sS'CGGGTT'
p2562
F0.1660431551771952
sS'CTGTTA'
p2563
F-0.3982282752613674
sS'AATTAC'
p2564
F-0.35424277952486277
sS'AATTAA'
p2565
I0
sS'AATTAG'
p2566
I0
sS'TAGGTC'
p2567
I0
sS'CGGGTC'
p2568
F0.5260510108005143
sS'CTGTTT'
p2569
F-0.1819288126932119
sS'CGGGTA'
p2570
F-0.07993927415588045
sS'CGGGTG'
p2571
F0.41290761171654256
sS'CCAAAC'
p2572
F-0.08047247800665581
sS'CTTCGG'
p2573
F0.34733560791868434
sS'CACACT'
p2574
F-0.28727518486984244
sS'TGGATG'
p2575
F-0.2836398511955276
sS'AGCAAA'
p2576
F0.20812574434373304
sS'ATATAT'
p2577
F-2.0633826927434997
sS'AGCAAC'
p2578
F0.12004710680667496
sS'TTAGGC'
p2579
F-0.43859425903857774
sS'AAAGCT'
p2580
F0.24522440122482
sS'AGCAAG'
p2581
F0.339118468210321
sS'AAAGCA'
p2582
F-0.027922827648190335
sS'ATATAG'
p2583
I0
sS'TTAGGT'
p2584
F-0.5211884458875794
sS'ATATAA'
p2585
I0
sS'AGCAAT'
p2586
F0.13736864040680008
sS'ATATAC'
p2587
F-0.6935811380336581
sS'ATAGCA'
p2588
F-0.3332510784936587
sS'ATAGCC'
p2589
F-0.11379754141684788
sS'TACTTG'
p2590
F-0.08443046704434201
sS'ATAGCG'
p2591
F-0.6670735875539473
sS'TCTCAC'
p2592
F-0.25331335344984873
sS'TGCTAA'
p2593
I0
sS'ATAGCT'
p2594
F-0.2853411727218084
sS'TACTTT'
p2595
F-0.24009133211011388
sS'GTTTTC'
p2596
F-0.2125916982994557
sS'CGAGTT'
p2597
F-0.3690700465201539
sS'CTCGCC'
p2598
F0.34871475954419795
sS'CGTACT'
p2599
F-0.6420713185838917
sS'TCCCGT'
p2600
F-0.00589214410732825
sS'ACATAC'
p2601
F-0.4114212883889175
sS'CTTAAG'
p2602
F0.11310707998939674
sS'ACATAA'
p2603
I0
sS'CTTAAA'
p2604
F-0.2816684702258381
sS'AGGGGT'
p2605
F-0.009062190896834877
sS'CTTAAC'
p2606
F-0.23907543812196577
sS'CGTACA'
p2607
F-0.306457901905722
sS'CGAGTG'
p2608
F0.2677520510670204
sS'TTGTTA'
p2609
F-1.0911400194483234
sS'CGAGTA'
p2610
F-0.01348127971687997
sS'CGAGTC'
p2611
F0.3525998479110415
sS'AGGGGA'
p2612
F-0.47552537743444073
sS'CTTAAT'
p2613
F-0.21376239338776473
sS'AGGGGC'
p2614
F0.319961435281685
sS'TATGCA'
p2615
F-0.4308156424649594
sS'AGGGGG'
p2616
F-0.5438188177003259
sS'TCATTA'
p2617
F-1.079547841518383
sS'CGACTT'
p2618
F0.2578135285328407
sS'TCGGGC'
p2619
F0.47053368295068293
sS'TTGTAA'
p2620
I0
sS'TTGTAC'
p2621
F-0.701368207781041
sS'GTACCT'
p2622
F-0.15022680704352276
sS'TCATTG'
p2623
F-0.21449110215503112
sS'TGAATC'
p2624
I0
sS'CGACTA'
p2625
F0.1915972596495834
sS'TGAATA'
p2626
I0
sS'CGACTC'
p2627
F0.391352436903058
sS'TGAATG'
p2628
I0
sS'AAGTAT'
p2629
F-0.06639187247609957
sS'CGACTG'
p2630
F0.5084658359994014
sS'TTGCCA'
p2631
F-0.36367501463344776
sS'TTGTAT'
p2632
F-0.686378742749334
sS'ATCGTG'
p2633
F0.5546064712535672
sS'GCTTCG'
p2634
F0.4296677346452672
sS'ATCGTC'
p2635
F0.6781419934524291
sS'ATCGTA'
p2636
F0.11719458763937825
sS'TGGGAG'
p2637
F0.3673423293829053
sS'TGGGAA'
p2638
F-0.0847147044789491
sS'TGGGAC'
p2639
F0.3224248252209862
sS'GCTTCT'
p2640
F0.16950368728670173
sS'ATCGTT'
p2641
F0.21608919426960707
sS'GATTGA'
p2642
I0
sS'TGGGAT'
p2643
F0.21333525681133847
sS'GGGCTA'
p2644
I0
sS'CTAGCC'
p2645
F-0.04321646713114062
sS'CTAGCA'
p2646
F-0.23484123414162367
sS'CTAGCG'
p2647
F-0.22774089372368464
sS'CGGTAG'
p2648
I0
sS'ACTTAG'
p2649
I0
sS'ACTTAA'
p2650
I0
sS'CGGTAC'
p2651
F0.10087262357238502
sS'ACTTAC'
p2652
F-0.08174132853356082
sS'CGGTAA'
p2653
I0
sS'GACCAG'
p2654
F0.6796218773795706
sS'GACCAC'
p2655
F0.45559333315774636
sS'TTGCCC'
p2656
F0.3182453385676264
sS'CTAGCT'
p2657
F-0.13350713042873813
sS'TTCGAG'
p2658
F0.7016780319906081
sS'ACTTAT'
p2659
F-0.5084680655240381
sS'CGGTAT'
p2660
F-0.043216467131140565
sS'TACACA'
p2661
F-0.32514554742519314
sS'TACACG'
p2662
F0.31010803029165984
sS'GCGAGA'
p2663
F-0.24733644978706545
sS'GAGAGC'
p2664
F0.5875740975107814
sS'GCGAGC'
p2665
F0.24384787239601677
sS'GGCCGT'
p2666
F0.4090812038634897
sS'GCGAGG'
p2667
F-0.45125680270750396
sS'TTAAGA'
p2668
F-0.5565711829286684
sS'CAGCCG'
p2669
F0.040192992249274494
sS'CAGCCA'
p2670
F0.2031092163459715
sS'CAGCCC'
p2671
F0.4536633365162302
sS'TCCGGG'
p2672
F0.16900763414093423
sS'GCGAGT'
p2673
F-0.15519022657507295
sS'CAGCCT'
p2674
F0.3743190976042777
sS'GAACTC'
p2675
F0.103550706972832
sS'GAACTA'
p2676
F-0.0019302136563065138
sS'GGACTT'
p2677
F0.04711135363963216
sS'CACCTA'
p2678
F-0.4334240255724875
sS'AACTAT'
p2679
F-0.08576881781660436
sS'CACCTC'
p2680
F0.03246623249718907
sS'CACCTG'
p2681
F-0.01737196179075837
sS'TGATCC'
p2682
I0
sS'AACACT'
p2683
F-0.26224594494023173
sS'TGATCA'
p2684
I0
sS'TGATCG'
p2685
I0
sS'TGCATG'
p2686
F-0.3388913458463513
sS'AACTAG'
p2687
I0
sS'GATTTA'
p2688
F-0.8835440085963014
sS'CACCTT'
p2689
F-0.14604684713520316
sS'AACTAC'
p2690
F0.4444592434012412
sS'AACTAA'
p2691
I0
sS'AACACG'
p2692
F0.09148210676631562
sS'AACACA'
p2693
F-0.2273522632888892
sS'AACACC'
p2694
F0.20215813217702883
sS'TGATCT'
p2695
I0
sS'CCAGCA'
p2696
F-0.003637736840137899
sS'CTATAC'
p2697
F-0.3690700465201539
sS'CAACAG'
p2698
F0.04369722914717483
sS'GACAGT'
p2699
F0.31487287597188374
sS'CAACAA'
p2700
F-0.11379754141684788
sS'CCAGCC'
p2701
F0.1426674066858367
sS'CAACAC'
p2702
F-0.30178802377223685
sS'GGCCGG'
p2703
F0.4008086778974999
sS'CTATAA'
p2704
I0
sS'GACAGG'
p2705
F0.22819106192603972
sS'CAACAT'
p2706
F-0.3408268035369845
sS'GACAGC'
p2707
F0.6325414376364253
sS'GACAGA'
p2708
F0.14854005435948903
sS'GTATTA'
p2709
F-1.0915211467056956
sS'GTATTC'
p2710
F-0.2788934161710659
sS'GTAAGT'
p2711
F-0.588195937801037
sS'CCAGCG'
p2712
F-0.05425176637053943
sS'AGAGGT'
p2713
F0.10969938657958164
sS'GGTGGC'
p2714
F0.4825101210220232
sS'TCCCCT'
p2715
F0.22178172321617345
sS'GGTGGA'
p2716
F0.6653889763984009
sS'CGTCAT'
p2717
F-0.04685075178623464
sS'GGTGGG'
p2718
F0.09850589029327808
sS'AGAGGC'
p2719
F0.17299201513252305
sS'GTAAGA'
p2720
F-0.6711041917225885
sS'AGAGGA'
p2721
F0.11436068210651576
sS'CGCCCT'
p2722
F0.001595877285221742
sS'AGAGGG'
p2723
F0.07681997083542977
sS'GTAAGG'
p2724
F-0.31382680797061824
sS'CGTCAA'
p2725
F-0.3345591953919901
sS'CGTCAC'
p2726
F0.09909636554658206
sS'TCCCCC'
p2727
F0.11091784885111157
sS'GGTGGT'
p2728
F0.06357293647800627
sS'CGTCAG'
p2729
F0.392375510360637
sS'GTCCGG'
p2730
F0.09468724664152704
sS'GTCGCA'
p2731
F0.2932858466950595
sS'GTCGCC'
p2732
F0.13075109829468506
sS'CCGTCT'
p2733
F0.2539009391697906
sS'TCGGTA'
p2734
F-0.13152630837727944
sS'CTCGCG'
p2735
F-0.29229487023840756
sS'TCGGTG'
p2736
F0.17386849268915183
sS'GTCGCT'
p2737
F-0.11740166568567308
sS'TACCTA'
p2738
F-0.5194853280896254
sS'GTAACT'
p2739
F-0.5064944946765136
sS'CCGTCG'
p2740
F0.6354775812305667
sS'CCGTCA'
p2741
F0.23739906371286346
sS'CCGTCC'
p2742
F0.3616565539353516
sS'GGCTGT'
p2743
F-0.2277408937236847
sS'CGCGTG'
p2744
F0.028009120478747526
sS'CTATAT'
p2745
F-0.7158575327448102
sS'CGCGTC'
p2746
F0.5260510108005143
sS'CGCGTA'
p2747
F0.38887781777520264
sS'GTTTTA'
p2748
F-1.0271698132013587
sS'ATGCAG'
p2749
F0.3831782528966317
sS'CCACTA'
p2750
F-0.17684928716393686
sS'CCACTC'
p2751
F-0.038546588997655416
sS'CGCGTT'
p2752
F-0.3780248891730804
sS'GGCTGG'
p2753
F0.07889297945829511
sS'GGCTGA'
p2754
I0
sS'GGCTGC'
p2755
F0.37524807011228967
sS'ATGCAT'
p2756
F-0.3595842985312933
sS'TTTAGA'
p2757
F-1.0192561056653098
sS'TTTCAT'
p2758
F-0.6964289809064843
sS'TTGACC'
p2759
F-0.1121239575272817
sS'ATGACG'
p2760
F0.29482863510934076
sS'GGAGTT'
p2761
F0.06165551843228455
sS'ATGACA'
p2762
F-0.13127806916966153
sS'ATGACC'
p2763
F0.36920969182579744
sS'CGGGCC'
p2764
F0.4810838652839911
sS'GGGCCT'
p2765
F0.3369947745804654
sS'TAAGAA'
p2766
I0
sS'ATGACT'
p2767
F-0.05069952603725208
sS'GGAGTA'
p2768
F0.171244348863003
sS'GGAGTC'
p2769
F0.5924717016606704
sS'GGAGTG'
p2770
F0.5352916675354269
sS'GGGCCG'
p2771
F0.3768965204920885
sS'GGGCCC'
p2772
F0.25781352853284056
sS'GGGCCA'
p2773
F0.01697073885217586
sS'GGCAAG'
p2774
F0.6914690894714127
sS'ACGAGT'
p2775
F-0.3110780995424672
sS'AGGCCA'
p2776
F-0.07336888436123969
sS'AGGCCC'
p2777
F0.11951083036655913
sS'AGGCCG'
p2778
F0.2434553784859734
sS'ACGAGG'
p2779
F0.14023589157090974
sS'ACGAGC'
p2780
F-0.12978564680097812
sS'GACCCG'
p2781
F0.6288062598499905
sS'ACGAGA'
p2782
F-0.009062190896834877
sS'GGCAAC'
p2783
F0.49082466667571495
sS'AGGCCT'
p2784
F0.1786322824852158
sS'AGACGG'
p2785
F0.13385847180579397
sS'GGGTTG'
p2786
F-0.4621024044650086
sS'TTTGGG'
p2787
F-0.0019302136563065138
sS'GGGTTA'
p2788
F-1.055805594439161
sS'GGGTTC'
p2789
F0.07748521653390468
sS'TTTGAT'
p2790
F0.03857944353839161
sS'TGAACT'
p2791
I0
sS'CTACGA'
p2792
F0.09032244123907689
sS'ATTGCT'
p2793
F0.15641850683291375
sS'GGGTTT'
p2794
F-0.29925251917816104
sS'TACAAG'
p2795
F0.5805176007589685
sS'TGCGAG'
p2796
F0.5321679356101963
sS'AACGGC'
p2797
F0.7675126712518536
sS'ATCCAT'
p2798
F-0.4337953761568091
sS'ATTGCA'
p2799
F-0.0403686242583144
sS'TTTGGC'
p2800
F0.06501657597430666
sS'ATTGCG'
p2801
F0.030885253387209252
sS'TTTGAC'
p2802
F0.25192316357352235
sS'TTTGAA'
p2803
F-0.04609896321217292
sS'CGGGCT'
p2804
F0.35423253585614467
sS'CTCGTA'
p2805
F-0.00589214410732825
sS'CTCGTC'
p2806
F0.06775661334033557
sS'CCCTGG'
p2807
F-0.0015398365676368448
sS'CCCTGA'
p2808
I0
sS'AAGCTT'
p2809
F0.14707531610121521
sS'CCCTGC'
p2810
F0.010177167088835211
sS'GTGTAA'
p2811
I0
sS'CCCTGT'
p2812
F-0.14967179804542735
sS'AAGCTC'
p2813
F0.49802228720027075
sS'GATATA'
p2814
F-0.34296724395594885
sS'AAGCTA'
p2815
F0.09032244123907689
sS'GATATG'
p2816
F0.0978320430178224
sS'AAGCTG'
p2817
F0.6322458171227634
sS'TGACGC'
p2818
I0
sS'TACTCT'
p2819
F0.0691331421691388
sS'CATCGT'
p2820
F0.12653461389352172
sS'GTAGTC'
p2821
F-0.01882202818599116
sS'CAGGGT'
p2822
F0.44455352202570864
sS'CCAGTC'
p2823
F0.2241906239047635
sS'TACGAT'
p2824
F0.614727706480887
sS'CCAGTG'
p2825
F0.21492068823220728
sS'TACTCG'
p2826
F0.4351840064276947
sS'CATCGA'
p2827
F-0.2776543440555174
sS'CATCGC'
p2828
F0.24862176782161202
sS'TACTCC'
p2829
F0.585172462919171
sS'TACTCA'
p2830
F-0.7199100767560072
sS'CATCGG'
p2831
F0.5605499880108389
sS'CAGGGG'
p2832
F0.012107367963472629
sS'CCAGTT'
p2833
F-0.2506621770708118
sS'CAGGGC'
p2834
F0.5727276434649132
sS'AATCTG'
p2835
F0.0614593379741081
sS'CGGACT'
p2836
F0.1660431551771952
sS'AATCTC'
p2837
F-0.19297878746447272
sS'AATCTA'
p2838
F-0.8991273764276149
sS'TGAACG'
p2839
I0
sS'TCACAC'
p2840
F-0.5163659542709564
sS'TCACAA'
p2841
F-0.44975664756509576
sS'TAAATT'
p2842
I0
sS'GCCATA'
p2843
F0.03559997882623749
sS'CGGACG'
p2844
F0.07328910194029656
sS'ACATCG'
p2845
F0.09281124164277162
sS'CGGACA'
p2846
F-0.07993927415588045
sS'CGGACC'
p2847
F0.27964196602851327
sS'GCCATG'
p2848
F0.6482798339602077
sS'TTTTAA'
p2849
I0
sS'TCACAT'
p2850
F-0.8384829296542073
sS'ATTAAC'
p2851
F-0.15666825800247292
sS'ATTAAA'
p2852
F-0.3873249122510427
sS'ATTAAG'
p2853
F-0.04779070524809014
sS'TTTTAC'
p2854
F-0.38074348635654737
sS'TCACTT'
p2855
F-0.279111709456337
sS'ATTCGT'
p2856
F-0.11919257330355401
sS'GTGCAG'
p2857
F0.39996524287003854
sS'TTACTA'
p2858
F-1.40771228244795
sS'ATTAAT'
p2859
F-0.6205412627433112
sS'TACCTG'
p2860
F0.474582752619922
sS'GGTATG'
p2861
F0.07633679502230185
sS'CTGAAT'
p2862
F0.11006649943483404
sS'GGTATC'
p2863
F0.2069765124428905
sS'CGAGAG'
p2864
F0.5409688004271175
sS'CTGAAA'
p2865
F0.19908528104213336
sS'CTGAAC'
p2866
F0.34814134930361335
sS'TCGACC'
p2867
F0.12653461389352164
sS'GGAACC'
p2868
F0.38829759794019764
sS'CTGAAG'
p2869
F0.6277942396269875
sS'CATTGC'
p2870
F-0.5655839769411382
sS'TATGAG'
p2871
F0.4129484999604086
sS'CATTGA'
p2872
I0
sS'CTAGTT'
p2873
F-0.7874327265574944
sS'CATTGG'
p2874
F-0.6007590508838916
sS'TCAACT'
p2875
F-0.4659800595282103
sS'ATGTTA'
p2876
F-0.8441760100044909
sS'ACACCG'
p2877
F0.4151553515756829
sS'CTGCCA'
p2878
F0.13815294042261728
sS'CTGCCC'
p2879
F0.6132011865194145
sS'ACACCC'
p2880
F0.01697073885217586
sS'ACACCA'
p2881
F0.12287847519479975
sS'CTGCCG'
p2882
F0.42674441199189955
sS'CTAGTG'
p2883
F0.10918365859841654
sS'TCAACC'
p2884
F-0.18893880966273258
sS'ATGTTC'
p2885
F-0.042150713266480684
sS'CTAGTC'
p2886
F-0.15122403935747158
sS'TCAACG'
p2887
F-0.04065425036654021
sS'CTAGTA'
p2888
F-0.7252553070851904
sS'CATTGT'
p2889
I0
sS'TATGAC'
p2890
F0.17439522954196116
sS'GTAATG'
p2891
F-0.18165575736708184
sS'ACACCT'
p2892
F0.06982304617745161
sS'CTGCCT'
p2893
F0.3921427819472101
sS'CCTCGT'
p2894
F0.31800073451615707
sS'TTGTGT'
p2895
F-0.9463064541230842
sS'AGACTG'
p2896
F0.09032244123907689
sS'AGACTC'
p2897
F0.01234924738042024
sS'AGACTA'
p2898
F-0.08839296164275319
sS'CCTCGG'
p2899
F0.10355070697283207
sS'CCTCGC'
p2900
F0.45389354827985195
sS'CCCGAC'
p2901
F0.9128546533545924
sS'CCTCGA'
p2902
F0.47053368295068293
sS'CGAGGA'
p2903
F0.53912934625027
sS'AGACTT'
p2904
F-0.1597721249497532
sS'CGAGGG'
p2905
F0.261018668408052
sS'CACCGT'
p2906
F0.14781833507099615
sS'ACTTTA'
p2907
F-0.7578666757523217
sS'ACTTTG'
p2908
F-0.3765451791150325
sS'TAGCTA'
p2909
I0
sS'GACCTG'
p2910
F0.900849315635537
sS'GTCGCG'
p2911
F-0.8658459892362864
sS'GACCTA'
p2912
F0.0749626858298627
sS'GACCTC'
p2913
F0.4579000587832331
sS'CACCGG'
p2914
F-0.012992484525267294
sS'CTATTG'
p2915
F-0.6095152846281688
sS'CACCGA'
p2916
F0.2734186018634166
sS'ACTTTT'
p2917
F-0.5731429026520345
sS'GACCTT'
p2918
F0.1800538696200099
sS'GGACGC'
p2919
F0.5462543968888013
sS'GGACGG'
p2920
F0.5029857067318209
sS'CTATTA'
p2921
F-0.7899193346564034
sS'CACAGC'
p2922
F-0.00036659547075823935
sS'CTTATC'
p2923
F-0.3756009136791117
sS'CACAGA'
p2924
F-0.46425324022770437
sS'CTTATA'
p2925
F-0.7605279276642712
sS'CACAGG'
p2926
F0.11200295959527662
sS'CTTATG'
p2927
F0.022136579492915285
sS'ACTCAT'
p2928
F-0.4557264251626574
sS'CGTATA'
p2929
F-0.7103946370433081
sS'GACGTA'
p2930
F0.49766991843294583
sS'CGTATC'
p2931
F0.5244746225655592
sS'CTATTC'
p2932
F-0.9406818401244599
sS'GAGGAC'
p2933
F1.076494241815508
sS'CGTATG'
p2934
F0.01949326955621795
sS'AGCGAT'
p2935
F0.5702321131262345
sS'TTAACA'
p2936
F-1.1373929102526643
sS'ACTCAC'
p2937
F-0.3970987701203975
sS'TTAACC'
p2938
F-0.6731055523238604
sS'ACTCAA'
p2939
F-0.2751655436518227
sS'ACTCAG'
p2940
F0.348383363509878
sS'CTTATT'
p2941
F-0.6578655857671234
sS'CACAGT'
p2942
F-0.23927880711744196
sS'AGCGAC'
p2943
F0.5084658359994015
sS'TAAACA'
p2944
I0
sS'AGCGAA'
p2945
F0.12825459428779545
sS'GAGGAT'
p2946
F1.0042474872435516
sS'AGCGAG'
p2947
F0.641616121333997
sS'CGTATT'
p2948
F-0.10280215711538469
sS'TAAACG'
p2949
I0
sS'AGTTCC'
p2950
F-0.012339900658070814
sS'GTATGT'
p2951
F-0.8753495299810298
sS'AGTTCA'
p2952
F-0.4312514623529164
sS'TACTTA'
p2953
F-0.9800848805010428
sS'AGTTCG'
p2954
F0.09615198489980073
sS'TAGCCC'
p2955
I0
sS'CTGTGA'
p2956
I0
sS'CGGGGT'
p2957
F0.31217119085543327
sS'TAGGAC'
p2958
I0
sS'GCAAAG'
p2959
F0.15842889639692878
sS'TAGGAA'
p2960
I0
sS'GCAAAA'
p2961
F-0.19329066861389285
sS'TAGGAG'
p2962
I0
sS'GCAAAC'
p2963
F-0.20674136720730285
sS'CGGGGC'
p2964
F0.2932858466950595
sS'CGGGGA'
p2965
F-0.14772366188971855
sS'CTGTGT'
p2966
F-0.342112333282436
sS'CGGGGG'
p2967
F0.13607993179975206
sS'GTATGC'
p2968
F-0.3797939119119271
sS'AGTTCT'
p2969
F-0.11629588664932292
sS'GCAAAT'
p2970
F-0.23080702988178198
sS'TAGGAT'
p2971
I0
sS'TAATTA'
p2972
I0
sS'CTATTT'
p2973
F-0.8098625551094594
sS'TGCTTT'
p2974
F-0.4791815161331626
sS'GTCTAT'
p2975
F-0.028052525866834727
sS'GTAATT'
p2976
F-0.6560893277413204
sS'GTTACC'
p2977
F0.09381076908489817
sS'GTTACA'
p2978
F-0.2772028944494779
sS'TAATTC'
p2979
I0
sS'GTTACG'
p2980
F-0.6609566627442653
sS'TATCGC'
p2981
F0.13128104891798337
sS'TATAGT'
p2982
F-0.6872493634523332
sS'GTCTAA'
p2983
I0
sS'AGGACG'
p2984
F0.49766991843294583
sS'GTCTAC'
p2985
F0.435953350263791
sS'TGCTTC'
p2986
F-0.10354390705129493
sS'TTCAAA'
p2987
F-0.05245195243157329
sS'GGCGTT'
p2988
F-0.04745352007439525
sS'GGGCTC'
p2989
F-0.17260302809275468
sS'TATAGC'
p2990
F-0.31791752407277263
sS'TATCGT'
p2991
F0.2095088489582856
sS'TATAGA'
p2992
F-0.9874087384133151
sS'AGTGGG'
p2993
F-0.19184633706556464
sS'TATAGG'
p2994
F-1.134986840486786
sS'GTGGCG'
p2995
F0.15920373064688983
sS'GTTACT'
p2996
F-0.5481668157155604
sS'GCTCTC'
p2997
F0.26055934051552215
sS'AACCTT'
p2998
F-0.13773554891493694
sS'GATGGC'
p2999
F0.6120890361500468
sS'GCTCTG'
p3000
F0.5437797777609459
sS'CCACGT'
p3001
F0.24522440122482006
sS'CAATAT'
p3002
F-0.6539705418835993
sS'CAGGAG'
p3003
F0.8828488165755644
sS'GAATGG'
p3004
F0.04313225640989002
sS'GAATGA'
p3005
I0
sS'ACTACT'
p3006
F-0.17212864849135256
sS'GAATGC'
p3007
F0.14174648259614828
sS'CCACGA'
p3008
F0.27077850569720824
sS'CAATAC'
p3009
F-0.5601793536392901
sS'CCACGC'
p3010
F0.26574606836942183
sS'CAATAA'
p3011
I0
sS'GTTCCG'
p3012
F0.1558239899955092
sS'CAATAG'
p3013
I0
sS'CCACGG'
p3014
F0.542137830693969
sS'AACCTA'
p3015
F-0.10451198011880741
sS'GAATGT'
p3016
F-0.12610738963717413
sS'ACTACC'
p3017
F-0.13326002118627997
sS'GGCTTC'
p3018
F0.7844935626933269
sS'ACTACA'
p3019
F-0.12452140680862105
sS'ACTACG'
p3020
F-0.9756305390747928
sS'GGCTTG'
p3021
F0.22502101513653314
sS'CGTTGA'
p3022
I0
sS'AGTCAG'
p3023
F0.15142762364090662
sS'CGTTGC'
p3024
F-0.2107075544249043
sS'TAACAC'
p3025
I0
sS'TCCTAC'
p3026
F0.3537162867826916
sS'AGTCAC'
p3027
F-0.28625451581743505
sS'CGTTGG'
p3028
F-0.04745352007439525
sS'AGTCAA'
p3029
F-0.4228951588288621
sS'TCATCG'
p3030
F0.13287479192454069
sS'TGAGGG'
p3031
I0
sS'TCATCC'
p3032
F-0.18026682194833482
sS'GAGCGG'
p3033
F0.5322363877313724
sS'CTTTCT'
p3034
F-0.672206081207923
sS'AGTCAT'
p3035
F-0.5139036118453931
sS'TCCTAT'
p3036
F0.10444708393068323
sS'TAACAT'
p3037
I0
sS'CGTTGT'
p3038
F-0.5836195573950109
sS'CTTTCC'
p3039
F-0.0038768528720027244
sS'CTTTCA'
p3040
F-0.3560593709833652
sS'CTTTCG'
p3041
F0.054892703054528605
sS'GAGCGC'
p3042
F0.5437797777609458
sS'GTTGAT'
p3043
F0.06142599610760649
sS'CGACCA'
p3044
F0.49161609191870237
sS'CGACCC'
p3045
F0.23298994480780844
sS'GCATAC'
p3046
F0.043497231684785594
sS'CGACCG'
p3047
F0.348383363509878
sS'CCTTAT'
p3048
F-0.11870487591159207
sS'GTTGAC'
p3049
F-0.06501359622598488
sS'GTTGAA'
p3050
F0.01505630396360759
sS'ACTGGG'
p3051
F0.004853471352404934
sS'GTTGAG'
p3052
F0.36298455320599665
sS'TTAGGG'
p3053
F-0.6650441703942469
sS'CCTTAC'
p3054
F0.3037380233185704
sS'TTCGAT'
p3055
F-0.2107075544249043
sS'CCTTAA'
p3056
I0
sS'CCTTAG'
p3057
I0
sS'CGACCT'
p3058
F0.09615198489980081
sS'CAACTC'
p3059
F-0.009185552488888128
sS'CAACTA'
p3060
F-0.5308538405359583
sS'CAACTG'
p3061
F-0.18188571010627025
sS'AATAGG'
p3062
F-0.38910889595865955
sS'GATGGT'
p3063
F0.3332204175223176
sS'GGGGTT'
p3064
F-0.08692539501654654
sS'GGATGT'
p3065
F-0.7588921649700121
sS'AATAGT'
p3066
F-0.9898228329111647
sS'GGGCTT'
p3067
F-0.06683199866720466
sS'CAACTT'
p3068
F-0.742612041792152
sS'GGATGC'
p3069
F-0.2349879304719842
sS'GGATGA'
p3070
I0
sS'GGATGG'
p3071
F-0.41807259189397616
sS'GGGGTA'
p3072
F-0.848197283937415
sS'TCTCCG'
p3073
F0.48826244991111456
sS'GAGTCC'
p3074
F0.716741778426484
sS'AAACTG'
p3075
F0.23906409252000155
sS'TCTCCC'
p3076
F0.2418534051391135
sS'AAACTA'
p3077
F-0.22529808987600922
sS'TCTCCA'
p3078
F0.05634438512563214
sS'AAACTC'
p3079
F-0.09080625850821823
sS'ACGCGA'
p3080
F-0.18198340316300957
sS'AGTACG'
p3081
F-0.6256809023957223
sS'ACGCGC'
p3082
F0.1722921044541967
sS'AGTACC'
p3083
F-0.5648159935723052
sS'ACGCGG'
p3084
F0.21333525681133847
sS'AGTACA'
p3085
F-0.4611275567337983
sS'AAACTT'
p3086
F-0.2970673850996525
sS'CCCTTC'
p3087
F-0.07403041454536022
sS'TCTCCT'
p3088
F0.19614488740030403
sS'CCCTTG'
p3089
F0.019259085413631565
sS'TTCTAT'
p3090
F-0.19847309800789262
sS'AGTACT'
p3091
F-0.17449538177045953
sS'ACGCGT'
p3092
F-0.3809692698198617
sS'GCCGAA'
p3093
F0.6351464378810094
sS'GTGGAG'
p3094
F0.8497413986388157
sS'GCCGAC'
p3095
F0.406503780975679
sS'GTGGAC'
p3096
F0.8421696772587187
sS'GCCGAG'
p3097
F0.7383544425106403
sS'GTGGAA'
p3098
F0.30611820810739565
sS'TATCAT'
p3099
F-0.397715227969684
sS'GTGGAT'
p3100
F0.5477166692530882
sS'GCCATC'
p3101
F0.6905156434640901
sS'GCCGAT'
p3102
F0.16863596575547482
sS'CCTATT'
p3103
F0.08457011234998565
sS'ACCCGG'
p3104
F-0.539766273689129
sS'ACCGAG'
p3105
F0.7292945158998103
sS'AAATCG'
p3106
F-0.10894503862243572
sS'CACGCG'
p3107
F-0.09477430410341746
sS'TTATCG'
p3108
F-0.02805252586683478
sS'ACCGAC'
p3109
F0.5662046238431908
sS'AAATCC'
p3110
F0.0692757910394978
sS'ACCGAA'
p3111
F0.30773957605635843
sS'AAATCA'
p3112
F-0.46404555975101064
sS'GGCTTT'
p3113
F0.31746753066538175
sS'CTTTGA'
p3114
I0
sS'AGATAC'
p3115
F-0.27641172666442176
sS'TCCCGA'
p3116
F0.20625569156056373
sS'CACGCT'
p3117
F0.036476014386824254
sS'AAATCT'
p3118
F-0.1881044996893983
sS'ACCGAT'
p3119
F0.3856001080139668
sS'GTAGTT'
p3120
F-1.2691335788819096
sS'ACCAGT'
p3121
F0.24568421543601407
sS'GATGAT'
p3122
F0.812140656671559
sS'GGAGCA'
p3123
F0.3655648250754091
sS'GGAGCC'
p3124
F0.6820824759272274
sS'CCGGCT'
p3125
F0.4825101210220232
sS'CCAAAT'
p3126
F-0.2867104680712871
sS'GGAGCG'
p3127
F0.3641596990891559
sS'AAAACT'
p3128
F-0.39460346981051464
sS'GATGAC'
p3129
F0.7783760310859973
sS'TGTCCC'
p3130
F0.2659567886461919
sS'GATGAA'
p3131
F0.6253751183064203
sS'GATGAG'
p3132
F0.9801069614514833
sS'AAAACC'
p3133
F0.034861457949867246
sS'AAAACA'
p3134
F-0.5260180145002296
sS'AAAACG'
p3135
F-0.18812628467006057
sS'GGAGCT'
p3136
F0.4014713436478926
sS'CCAAAG'
p3137
F-0.13315822944037786
sS'TCGCGG'
p3138
F-0.3378123527897119
sS'CTAGAG'
p3139
F0.316327150626591
sS'TCGCGC'
p3140
F-0.32687236672569914
sS'CTACCG'
p3141
F0.5271805159414842
sS'GCCACA'
p3142
F0.4689572947157279
sS'AGATCA'
p3143
F-0.559012417473065
sS'GCCACC'
p3144
F0.6506138975524671
sS'AGAAAT'
p3145
F-0.268783011542624
sS'TCCCGG'
p3146
F-0.07283893373794145
sS'GCGCTT'
p3147
F-0.049556645162159615
sS'GCCACG'
p3148
F0.7007711732733275
sS'AGATCG'
p3149
F-0.23601341968967446
sS'ACCAGC'
p3150
F0.340024477377184
sS'TCGCGT'
p3151
F-0.645276458459103
sS'GTGCAA'
p3152
F-0.08814665822942894
sS'TCCCAT'
p3153
F-0.23601341968967451
sS'ACCCGT'
p3154
F0.49556168865261396
sS'AGAAAG'
p3155
F-0.09869973133281906
sS'CTAGAC'
p3156
F0.09508623103514088
sS'AGAAAC'
p3157
F-0.23834834188331627
sS'ATGTCC'
p3158
F0.25098945687860935
sS'AGAAAA'
p3159
F-0.5776490722878935
sS'CTACCC'
p3160
F-0.04088780481255796
sS'ATGTAC'
p3161
F0.1653973640070436
sS'GACCGA'
p3162
F0.5012274270754822
sS'ATGTAA'
p3163
I0
sS'TATGTG'
p3164
F-0.18678228604477817
sS'ATGTAG'
p3165
I0
sS'CCTATA'
p3166
F-0.3322205010925818
sS'CGAAGT'
p3167
F0.05689868575212721
sS'CCGGCA'
p3168
F0.335974105528058
sS'GACGAC'
p3169
F1.1592037306468899
sS'CCTATC'
p3170
F0.2996854793073736
sS'ATGTAT'
p3171
F-0.5382467812715435
sS'ATTAGA'
p3172
F-0.7961682839334049
sS'GGCGTC'
p3173
F0.6269272110261721
sS'GACCGG'
p3174
F0.525333761286697
sS'AGCACT'
p3175
F0.18026331957917116
sS'TTAGAA'
p3176
F-0.7391099923785218
sS'CGGCTG'
p3177
F0.20808259322025346
sS'TTAGAC'
p3178
F-0.1436493929557776
sS'CGGCTC'
p3179
F0.11616909842168795
sS'TTAGAG'
p3180
F0.10887451552077414
sS'CGGCTA'
p3181
F-0.003099243923158191
sS'AGCACC'
p3182
F0.02528884625274427
sS'AGCACA'
p3183
F0.04369722914717492
sS'AGCACG'
p3184
F-0.1760660687696903
sS'GGTCGG'
p3185
F-0.0599221606339933
sS'CGGCTT'
p3186
F-0.3110780995424672
sS'TTAGAT'
p3187
F-0.34656270552230267
sS'AAAGAC'
p3188
F0.5075303601785676
sS'CGAAGC'
p3189
F-0.19297878746447272
sS'AAAGAA'
p3190
F0.09124992580280464
sS'AAAGAG'
p3191
F0.5975262473990031
sS'ATATCA'
p3192
F-1.459661169920612
sS'GCGCTG'
p3193
F0.5042354758875282
sS'TCGCTA'
p3194
F0.028869962151883616
sS'TGTGAG'
p3195
F0.07103769989510789
sS'TGTGAA'
p3196
F-0.2347509348415992
sS'CTACCT'
p3197
F-0.41591191837304897
sS'TGTGAC'
p3198
F0.04892975608085185
sS'ATATCT'
p3199
F-0.5521420790030445
sS'CCAGCT'
p3200
F0.10531806839288965
sS'AAAGAT'
p3201
F0.3148819097524101
sS'TGTGAT'
p3202
F-0.1842552190596158
sS'TTATTG'
p3203
F-1.599164007125171
sS'TTATTA'
p3204
F-2.065984358254996
sS'GAAAGC'
p3205
F0.2527340030035656
sS'TTATTC'
p3206
F-1.284792243453148
sS'ACATCT'
p3207
F-0.09692961612955242
sS'TTTTAT'
p3208
F-1.2721600335120975
sS'CTTACT'
p3209
F-0.19498477016207127
sS'AGACGC'
p3210
F-0.20546449901253247
sS'TACAAA'
p3211
F-0.18024370334717948
sS'AGACGA'
p3212
F0.2805383429863645
sS'AAGTGA'
p3213
I0
sS'CCTCTG'
p3214
F0.3135520965718188
sS'AGGTGG'
p3215
F-0.2144142154624512
sS'CCTCTC'
p3216
F0.2201887596430829
sS'AGGTGC'
p3217
F-1.0680400508561727
sS'CCTCTA'
p3218
F-0.1384200163251799
sS'AGGTGA'
p3219
I0
sS'CTTACG'
p3220
F-0.39539898524250305
sS'TCCACA'
p3221
F0.02744370641385159
sS'TTTTAG'
p3222
I0
sS'AGACGT'
p3223
F-0.7460016744676747
sS'CTTACC'
p3224
F-0.1600975610698171
sS'ACATCA'
p3225
F-0.3246509067317411
sS'CTTACA'
p3226
F-0.2455911246708969
sS'ACATCC'
p3227
F-0.16253058974081627
sS'AGGTGT'
p3228
F-0.4763114310099401
sS'CCTCTT'
p3229
F0.20544619555377808
sS'GCGTGA'
p3230
I0
sS'CCCGGC'
p3231
F0.667076567302269
sS'CCCGGA'
p3232
F0.4562602815589589
sS'CCCGGG'
p3233
F0.40507846140981574
sS'TATGAA'
p3234
F0.18248129865613225
sS'TGGAAT'
p3235
F-0.3494407444307332
sS'TAGGTG'
p3236
I0
sS'TTGTGC'
p3237
F-0.3993548504246217
sS'TATGAT'
p3238
F0.24919058844242148
sS'TTGTGG'
p3239
F-0.4713750914149165
sS'CCCGGT'
p3240
F0.2546318697466514
sS'GGCGTG'
p3241
F0.3014473254636602
sS'TAGGTA'
p3242
I0
sS'GGTTTT'
p3243
F-0.3067481087203318
sS'TATCAC'
p3244
F-0.2685637631667921
sS'TGGAAA'
p3245
F-0.1887826728708645
sS'TGAGGA'
p3246
I0
sS'AAGAGG'
p3247
F0.5765036225695693
sS'TGAGGC'
p3248
I0
sS'AAGAGA'
p3249
F0.17149358530135173
sS'AAGAGC'
p3250
F0.38076381658900743
sS'AAGCGT'
p3251
F0.3176340865569354
sS'GCTTAG'
p3252
I0
sS'GCTTAC'
p3253
F0.0075370709226268385
sS'GCTTAA'
p3254
I0
sS'TGATTC'
p3255
I0
sS'AAGCGC'
p3256
F0.5756965710352934
sS'AAGAGT'
p3257
F0.16752286523524307
sS'AAGCGA'
p3258
F0.4434501054947522
sS'AAGCGG'
p3259
F0.4399577703365595
sS'GCTTAT'
p3260
F-0.0408148325395301
sS'GTTCGG'
p3261
F0.4504738890217147
sS'CTGCTA'
p3262
F-0.3188858510779518
sS'GCGTGT'
p3263
F-0.4650138867561898
sS'CTGCTC'
p3264
F0.31277479690381915
sS'ACTTCT'
p3265
F-0.7789092784918993
sS'GACCGT'
p3266
F0.2880375111387139
sS'CTGCTG'
p3267
F0.517551826013102
sS'CGGTCA'
p3268
F0.035964778916484204
sS'GGTCGT'
p3269
F0.45254689764458
sS'CGGTCC'
p3270
F0.24700065925062306
sS'CTAGAA'
p3271
F0.22002496764344076
sS'CGGTCG'
p3272
F-0.06804005085617276
sS'ACTTCG'
p3273
F0.020901032480608324
sS'GACCGC'
p3274
F0.7321054932336387
sS'TTTTGG'
p3275
F-0.7772292203738776
sS'ACTTCC'
p3276
F-0.18792291567458447
sS'CTGCTT'
p3277
F0.018931439617703844
sS'ACTTCA'
p3278
F-0.35921529184849693
sS'CTAGAT'
p3279
F-0.15519022657507284
sS'CACAAA'
p3280
F-0.144483986413387
sS'CGGTCT'
p3281
F-0.08228048997078304
sS'GGTCGC'
p3282
F-0.6834640037421167
sS'GGTCGA'
p3283
F0.31217119085543327
sS'CGTCGC'
p3284
F0.03801334159175338
sS'CAGCAT'
p3285
F-0.15099411198146476
sS'TGAAGC'
p3286
I0
sS'CGTCGG'
p3287
F-0.23601341968967451
sS'TGGTTG'
p3288
F-0.4228951588288621
sS'GCGTGC'
p3289
F-0.5301606329156715
sS'TGCTCA'
p3290
F-0.37267417078897924
sS'TTCATC'
p3291
F0.139044410763491
sS'TGCTCC'
p3292
F-0.08961215689836455
sS'TTCATA'
p3293
F-0.5146232383263737
sS'TTCATG'
p3294
F0.22199456050634533
sS'TGCTCG'
p3295
F-0.12239771317876545
sS'GTACAA'
p3296
F-0.4085785878038276
sS'CAGCAG'
p3297
F0.5937726346810883
sS'TACACT'
p3298
F-0.19335561567197843
sS'GCTTTG'
p3299
F0.21363099702154323
sS'CAGCAC'
p3300
F0.18675017270739516
sS'CAGCAA'
p3301
F-0.08220516354931179
sS'GGGAGT'
p3302
F-0.15519022657507295
sS'GTACAC'
p3303
F-0.3809692698198617
sS'TGATTT'
p3304
I0
sS'TTCATT'
p3305
F-0.49747483889129884
sS'GTAGCC'
p3306
F-0.2310688370726121
sS'GCTGCC'
p3307
F0.43975002362994164
sS'GCTGCA'
p3308
F0.33383025144429723
sS'AACTCT'
p3309
F0.06120933634661344
sS'GCTGCG'
p3310
F0.2109398040647343
sS'TGGCCA'
p3311
F-0.5073727446864355
sS'GTAGCA'
p3312
F0.05689868575212721
sS'TCATCT'
p3313
F0.0153645135485383
sS'TGCTCT'
p3314
F-0.17355023562614677
sS'AACTCA'
p3315
F-0.27014474227677193
sS'TGGCCT'
p3316
F-0.02805252586683478
sS'AACTCC'
p3317
F0.19301884678437758
sS'GCTGCT'
p3318
F0.3371596235032658
sS'AACTCG'
p3319
F0.00041732979967899476
sS'CTACAA'
p3320
F-0.25798242180908376
sS'GGATCC'
p3321
F0.6837822608051218
sS'TGAAGA'
p3322
I0
sS'AATATT'
p3323
F-0.6136563837693091
sS'GTTCGA'
p3324
F0.24110783502998795
sS'CAACCT'
p3325
F0.09909636554658198
sS'TGGCCG'
p3326
F0.041104418568895275
sS'GGCACG'
p3327
F0.33955699134506584
sS'GGAGGA'
p3328
F0.5245988664462244
sS'GGCACA'
p3329
F0.19520138391840866
sS'GACAAT'
p3330
F0.016970738852175954
sS'GGCACC'
p3331
F0.6060226018922911
sS'CAACCG'
p3332
F-0.04065425036654021
sS'ACGACC'
p3333
F0.316327150626591
sS'AATATG'
p3334
F-0.3764579801423667
sS'CAACCC'
p3335
F-0.006008126076745943
sS'TTAGGA'
p3336
F-0.4420071998399546
sS'AATATC'
p3337
F-0.270649442486859
sS'GACAAA'
p3338
F0.24282938882102648
sS'GGCACT'
p3339
F0.2314845898104915
sS'GACAAC'
p3340
F0.49757386745789906
sS'ACGACA'
p3341
F-0.013861073778603522
sS'GACAAG'
p3342
F0.8305955947095208
sS'TGGCCC'
p3343
F-0.10894503862243572
sS'GCAATC'
p3344
F-0.07640361434097484
sS'GCAATA'
p3345
F-0.6615722468046705
sS'GAATTT'
p3346
F-0.48318208963583265
sS'TTGAAC'
p3347
F-0.18486089724229324
sS'CGATGG'
p3348
F0.226150520277503
sS'GTTCCC'
p3349
F0.4544558874519111
sS'CGATGC'
p3350
F-0.21359324266239246
sS'GTAAAT'
p3351
F-0.8471954507782696
sS'CGATGA'
p3352
I0
sS'GAATTA'
p3353
F-0.6721060248817338
sS'GAATTC'
p3354
F-0.031190505428600582
sS'GAATTG'
p3355
F-0.5969091598256977
sS'GTAAAC'
p3356
F-0.36553712596445875
sS'CGATGT'
p3357
F-0.7447336604810393
sS'GTAAAA'
p3358
F-0.43383444722713405
sS'GTAAAG'
p3359
F-0.15333558539961936
sS'TCCCAG'
p3360
F0.40599012688634784
sS'GGATTT'
p3361
F-0.0878693998169528
sS'GTGCGT'
p3362
F-0.1530699889290625
sS'ACGCCG'
p3363
F0.8479379584878696
sS'GGATTC'
p3364
F0.39425742754646537
sS'GGATTA'
p3365
F-0.3740677366756636
sS'GGATTG'
p3366
F-0.25547123566883595
sS'AGCGGC'
p3367
F0.8442765695741516
sS'ACGCCA'
p3368
F0.3341164422170283
sS'AAAGCC'
p3369
F0.37636927205789544
sS'TCTGTG'
p3370
F0.075032558645057
sS'CTATCC'
p3371
F-0.46838612929408874
sS'GTCCCG'
p3372
F0.585172462919171
sS'TACAAT'
p3373
F-0.15476086966229366
sS'AACCGG'
p3374
F-0.021043488179949145
sS'CTCCTT'
p3375
F0.026801441549086154
sS'GGCGGA'
p3376
F0.5215033830497936
sS'AACCGC'
p3377
F0.2727771032506151
sS'AACCGA'
p3378
F0.4175143714003525
sS'GTGGGA'
p3379
F0.42979176562766186
sS'TACCCA'
p3380
F0.012401847693196098
sS'TCTGTT'
p3381
F-0.3611569638857849
sS'AAAGCG'
p3382
F-0.14520600566847203
sS'CTCCTG'
p3383
F0.25562931027297925
sS'AACCGT'
p3384
F0.2858422521330842
sS'CTCCTA'
p3385
F-0.4924981921032154
sS'CTCCTC'
p3386
F0.08528500054746302
sS'GGCGGT'
p3387
F0.32689444767613957
sS'AACAAG'
p3388
F0.34401855810742793
sS'CCCACG'
p3389
F-0.1877775937786649
sS'AACAAC'
p3390
F0.2590717461639578
sS'AACAAA'
p3391
F-0.07942112597522512
sS'TACTTC'
p3392
F0.12001600022915176
sS'AGCCTT'
p3393
F-0.012013240633717016
sS'CCGATT'
p3394
F0.1211728855214135
sS'CCCACT'
p3395
F0.2875487159471012
sS'AACAAT'
p3396
F-0.28066506309332323
sS'GACGCT'
p3397
F0.25585282776731266
sS'AGCGGT'
p3398
F0.041104418568895365
sS'CCGATA'
p3399
F-0.15519022657507295
sS'AGCCTG'
p3400
F0.44139539207613787
sS'AGCCTA'
p3401
F-0.29617652431157626
sS'AGCCTC'
p3402
F0.09657139051607837
sS'GTACCC'
p3403
F0.2774090845962213
sS'CTCCCG'
p3404
F-0.02805252586683478
sS'TAGGCT'
p3405
I0
sS'ACGAAT'
p3406
F-0.34211233328243595
sS'CGCCTT'
p3407
F-0.08286382717319712
sS'AGGCAT'
p3408
F0.08385639898984518
sS'CAGAGT'
p3409
F0.25710447615998683
sS'GCATCT'
p3410
F0.07538209144614035
sS'CTCCCA'
p3411
F-0.10077273995568431
sS'ACGAAA'
p3412
F-0.09960880094903439
sS'CGCCTC'
p3413
F0.3258972153621909
sS'AGGCAA'
p3414
F-0.5648159935723053
sS'CGCCTA'
p3415
F-0.3537223546789994
sS'AGGCAG'
p3416
F0.15395765931108776
sS'CGCCTG'
p3417
F0.3768965204920885
sS'ACGAAG'
p3418
F0.5194204319015012
sS'CAGAGG'
p3419
F0.3907095137924471
sS'GCATCC'
p3420
F0.1469378593879604
sS'GCATCA'
p3421
F-0.34039744662420535
sS'CAGAGC'
p3422
F0.46585834030949524
sS'CGGCCA'
p3423
F-0.2214314198166774
sS'CAGAGA'
p3424
F0.316687292020397
sS'CGGCAC'
p3425
F0.0829404876164774
sS'CCTAGA'
p3426
F-0.04685075178623464
sS'CCTAGC'
p3427
F0.2329899448078085
sS'TTTGCT'
p3428
F-0.06337518880000183
sS'TAGCTC'
p3429
I0
sS'TGCGGT'
p3430
F-0.018392883406108385
sS'CCTAGG'
p3431
F-0.1064983026753484
sS'TAAGCA'
p3432
I0
sS'GTCTAG'
p3433
I0
sS'TGCGGC'
p3434
F0.25994765804552644
sS'TGCGGA'
p3435
F0.28960536295669187
sS'CCTAGT'
p3436
F-0.21244126723390486
sS'TGCGGG'
p3437
F0.30856706658660804
sS'TAAGCG'
p3438
I0
sS'TGAGTT'
p3439
I0
sS'TAGCTG'
p3440
I0
sS'ATCGCT'
p3441
F0.44215766266507583
sS'TCTCGT'
p3442
F0.18076641199790155
sS'ATCGCC'
p3443
F0.6923824325670392
sS'TGAGTG'
p3444
I0
sS'ATCGCA'
p3445
F0.13345578797360322
sS'TGAGTA'
p3446
I0
sS'ATCGCG'
p3447
F0.18723245424713336
sS'TGAGTC'
p3448
I0
sS'AAGGTG'
p3449
F0.6404358492027876
sS'ACGGCT'
p3450
F0.4090812038634897
sS'CATCAT'
p3451
F-0.43644747027817116
sS'AAGGTA'
p3452
F-0.18995233283428484
sS'TTTATT'
p3453
F-0.9565627495986332
sS'ACGGCA'
p3454
F0.1585872727976033
sS'CATCAC'
p3455
F0.08355088052356745
sS'ACGGCC'
p3456
F0.47169334847792166
sS'CATCAA'
p3457
F-0.48946115537773327
sS'CATCAG'
p3458
F-4.297176106164064e-05
sS'ACGGCG'
p3459
F0.46478135406159166
sS'TCACCT'
p3460
F-0.11674859115373001
sS'TCTAAG'
p3461
F-0.15078110767001782
sS'TCGTTT'
p3462
F-0.45324898272328856
sS'CGGAAT'
p3463
F-0.2788934161710659
sS'CTCATG'
p3464
F0.3069386639217563
sS'TCACCG'
p3465
F0.10291156854709738
sS'TCACCA'
p3466
F0.06863708902337133
sS'TCACCC'
p3467
F0.2057158599411465
sS'CGGAAG'
p3468
F0.404282320981721
sS'AATATA'
p3469
F-0.9447068409632913
sS'CGGCCT'
p3470
F0.460233726310871
sS'CGGAAC'
p3471
F0.22344462690157801
sS'CGGAAA'
p3472
F0.03341758990260423
sS'TAGCTT'
p3473
I0
sS'ATGGCG'
p3474
F0.7024243708611799
sS'TGTGTA'
p3475
F-0.6251237573778063
sS'ATGGCC'
p3476
F0.34304775732850307
sS'ATGGCA'
p3477
F0.173693055610659
sS'TCCAAT'
p3478
F0.2808647574939538
sS'ATGGCT'
p3479
F0.4019026192363662
sS'TGTGTT'
p3480
F-1.0076781417521516
sS'TTGTCG'
p3481
F-0.3588987506669157
sS'GAACAT'
p3482
F-0.4520879885725161
sS'AGATTA'
p3483
F-1.3925511423696768
sS'AGATTC'
p3484
F-0.2988436431254555
sS'GAAACA'
p3485
F-0.29799503475509775
sS'AGATTG'
p3486
F-0.5625038613219278
sS'CTGAGT'
p3487
F0.12944935290073892
sS'GAAACT'
p3488
F-0.11791410761168004
sS'AGAATG'
p3489
F-0.06450713030047758
sS'AGAATA'
p3490
F-0.5613862068864711
sS'AGAATC'
p3491
F0.14190947546047583
sS'CTGAGC'
p3492
F0.3002173770859279
sS'CTGAGA'
p3493
F0.16107973564564507
sS'CTGAGG'
p3494
F0.19306199790785716
sS'CATACC'
p3495
F-0.6935811380336581
sS'CATACA'
p3496
F-0.6614697100359488
sS'CATACG'
p3497
I0
sS'TCAAAT'
p3498
F-0.5203377218508031
sS'GTCCAT'
p3499
F-0.25733276651680626
sS'ACATAG'
p3500
I0
sS'CATACT'
p3501
F-0.577441722328403
sS'GTCCAG'
p3502
F0.38218493066215425
sS'TCAAAG'
p3503
F0.0002955934339475047
sS'CACGAG'
p3504
F0.37431909760427773
sS'GTCCAC'
p3505
F0.27874743536848356
sS'GCAATG'
p3506
F0.06012765588232568
sS'CGGCGG'
p3507
F0.3219310281445895
sS'TTGATG'
p3508
F-0.5189161347160088
sS'CTCATT'
p3509
F0.0824132711852321
sS'CGGCGC'
p3510
F-0.014164670073318189
sS'TTGATC'
p3511
F-0.2216239689140028
sS'CGGCGA'
p3512
F0.05689868575212713
sS'TCCAAG'
p3513
F0.5047005933900515
sS'CTATCT'
p3514
F-1.1782555306437663
sS'TTGATT'
p3515
F-0.48769930922144666
sS'CGGCGT'
p3516
F0.2764556385888987
sS'TATAAG'
p3517
F0.021941259281885964
sS'TGACTT'
p3518
I0
sS'TCACAG'
p3519
F0.029624600885465213
sS'CGGTTA'
p3520
F0.15726923086969002
sS'GGTTTA'
p3521
F-0.3156496626169506
sS'CGGTTC'
p3522
F-0.6051592352511206
sS'GCTGTT'
p3523
F0.020746835964909546
sS'TTTACA'
p3524
F-0.4940087831284539
sS'CGGTTG'
p3525
F-0.6731055523238604
sS'GGTTTG'
p3526
F0.02913229648900749
sS'TATAAA'
p3527
F-0.7336531091018667
sS'CGTACG'
p3528
F-0.7447336604810393
sS'GCTGTG'
p3529
F0.139044410763491
sS'GCTGTC'
p3530
F0.09502482495771046
sS'CGGTTT'
p3531
F-0.11052805685200055
sS'GCTGTA'
p3532
F-0.08228048997078304
sS'GGGAGG'
p3533
F-0.2874693263491162
sS'TCATAG'
p3534
I0
sS'TATGCG'
p3535
F0.058510169908706514
sS'TCTCAA'
p3536
F-0.13437815856247712
sS'AGGTTG'
p3537
F-0.21395260923805137
sS'GCATTT'
p3538
F-0.4940087831284539
sS'AGGTTC'
p3539
F-0.454572043858981
sS'AGGTTA'
p3540
F-0.11379754141684781
sS'ACTCCT'
p3541
F0.2744791505758103
sS'TTTTTC'
p3542
F-0.7210738058383348
sS'GAGGGC'
p3543
F0.686630103677948
sS'TTTTTA'
p3544
F-1.2159953398653554
sS'TCCTCT'
p3545
F0.3312844653790759
sS'TTTTGT'
p3546
F-0.9738026277094431
sS'GAGGGG'
p3547
F0.4163804426049892
sS'TTAAAT'
p3548
F-1.0738604030020251
sS'AGGTTT'
p3549
F-0.4416671101734734
sS'ACATAT'
p3550
F-0.7200594471725796
sS'TTAAAC'
p3551
F-0.6719058430473975
sS'TTAAAA'
p3552
F-0.803870504653069
sS'ACTCCG'
p3553
F0.4432953043945913
sS'TTAAAG'
p3554
F-0.5317434847157567
sS'ACTCCA'
p3555
F0.2734186018634166
sS'TTTTTT'
p3556
F-1.3713261268243782
sS'ACTCCC'
p3557
F0.34541212399411236
sS'CTGTAA'
p3558
I0
sS'GTCACG'
p3559
F0.12141516975749003
sS'CTGTAC'
p3560
F0.2072845445729066
sS'GCAACT'
p3561
F-0.17344509230596164
sS'GCAATT'
p3562
F-0.3780248891730804
sS'CTGTAG'
p3563
I0
sS'GTCACA'
p3564
F-0.008163960003934547
sS'GCAACG'
p3565
F-0.39822827526136734
sS'GTCACT'
p3566
F0.038013341591753465
sS'TAGGCG'
p3567
I0
sS'GCAACC'
p3568
F-0.09353332551098081
sS'CTGTAT'
p3569
F-0.10748806750984057
sS'GCAACA'
p3570
F-0.2235447791300765
sS'TAGGCC'
p3571
I0
sS'TGGTTC'
p3572
F-0.07915605576163393
sS'ATTCAT'
p3573
F-0.47181519792883164
sS'TCCCAC'
p3574
F-0.04065425036654021
sS'GCGATT'
p3575
F-0.60340450768457
sS'TCGTGT'
p3576
F-0.6069069015206406
sS'TGAATT'
p3577
I0
sS'GTCTCT'
p3578
F-0.25837174902646426
sS'TCCGTG'
p3579
F0.046305612254703116
sS'ATTCAG'
p3580
F0.032994507081123586
sS'ATTCAA'
p3581
F-0.30335023582328946
sS'ATTCAC'
p3582
F-0.2016052410795196
sS'GTCTCC'
p3583
F0.23601639943799632
sS'GTCTCA'
p3584
F-0.1046541619769781
sS'GCGATG'
p3585
F0.4928582016002636
sS'GTCTCG'
p3586
F0.05958782426290842
sS'GCGATA'
p3587
F-0.26761240576137685
sS'TCGTGC'
p3588
F-0.4255514024726022
sS'GCGATC'
p3589
F-0.04065425036654021
sS'CGATTG'
p3590
F-0.1472212969037976
sS'TCTACA'
p3591
F-0.25668213795780964
sS'GAAGGA'
p3592
F0.6264078235033504
sS'CGATTC'
p3593
F0.15920373064688983
sS'CGATTA'
p3594
F-0.3730727889738279
sS'CAATCT'
p3595
F-0.14675705903821004
sS'GGAACA'
p3596
F0.3391427067749654
sS'GGAACG'
p3597
F0.4992578342125777
sS'TGACGA'
p3598
I0
sS'TACTGC'
p3599
F0.228489443581132
sS'CGATTT'
p3600
F-0.5711747379407531
sS'GAAGGT'
p3601
F0.1742119442546223
sS'CTCGCT'
p3602
F0.23426167187144573
sS'CAATCG'
p3603
F-0.49174092167263184
sS'CAATCA'
p3604
F-0.657477649625292
sS'CAATCC'
p3605
F-0.1391034066816182
sS'TCCTGA'
p3606
I0
sS'AGTCCA'
p3607
F0.17355275695594083
sS'TCCTGC'
p3608
F0.14034726340942325
sS'AGTCCC'
p3609
F0.2205806868259885
sS'ACTAAA'
p3610
F-0.006383149792080672
sS'TCCTGG'
p3611
F-0.02805252586683478
sS'ACTAAC'
p3612
F-0.036782357125730684
sS'TAACGC'
p3613
I0
sS'CAGCTG'
p3614
F0.47621653028104616
sS'CAGCTA'
p3615
F-0.49174092167263184
sS'CAGCTC'
p3616
F0.3415144362804747
sS'ACTAAT'
p3617
F-0.5788615666070441
sS'AGTCCT'
p3618
F0.29685443277132756
sS'TCCTGT'
p3619
F-0.22126842695234974
sS'TAATGT'
p3620
I0
sS'CAGCTT'
p3621
F-0.09860604252177649
sS'GGTTAG'
p3622
I0
sS'TAACGT'
p3623
I0
sS'ACGGAC'
p3624
F-0.013861073778603522
sS'GTACTT'
p3625
F-0.91054528029215
sS'CGACAT'
p3626
F-0.3110780995424672
sS'TTGTTC'
p3627
F-0.5310846640768175
sS'CCGAGG'
p3628
F-0.06318754806176065
sS'CCGAGA'
p3629
F0.2434553784859734
sS'ACGGAA'
p3630
F-0.05828021356701657
sS'CCGAGC'
p3631
F0.5072856872245449
sS'CCGCGT'
p3632
F0.13128104891798337
sS'CGACAC'
p3633
F0.13607993179975197
sS'CGACAA'
p3634
F-0.04503741102276636
sS'CGACAG'
p3635
F0.2718765959962603
sS'GTACTA'
p3636
I0
sS'CCGCGC'
p3637
F0.3194704295969327
sS'ACGGAG'
p3638
F0.645468364806422
sS'CCGCGA'
p3639
F-0.16495006386422914
sS'TACGCA'
p3640
F-0.41155805251598176
sS'CCGCGG'
p3641
F0.22955676896941446
sS'TTGTTT'
p3642
F-1.0023202401593083
sS'GCATAT'
p3643
F-0.4770960644336716
sS'TCCGTT'
p3644
F0.128637738981286
sS'AGGAAC'
p3645
F0.1938920839158755
sS'AATAAC'
p3646
F-0.10172316405874532
sS'AATAAA'
p3647
F-0.5440288551769272
sS'AATAAG'
p3648
F-0.14290449269393615
sS'TACTAA'
p3649
I0
sS'TGGAAG'
p3650
F0.14654536547791694
sS'AATAAT'
p3651
F-1.017503986258078
sS'ACGGTG'
p3652
F0.7053123166457022
sS'CCAACC'
p3653
F-0.02552571448049768
sS'CCAACA'
p3654
F-0.10630455095145534
sS'TTATGC'
p3655
F-1.3151946657372993
sS'CCAACG'
p3656
F0.22699958111862104
sS'GGGATT'
p3657
F0.08661578020152998
sS'CGCCGC'
p3658
F0.4501724003029751
sS'AGTAAA'
p3659
F-0.163914796432624
sS'CGCCGA'
p3660
F0.0053888663023607996
sS'AGTAAC'
p3661
F0.035964778916484204
sS'CGCCGG'
p3662
F0.36878660900431676
sS'GAGTAA'
p3663
I0
sS'AGTAAG'
p3664
F-0.14520600566847203
sS'CTCAGG'
p3665
F0.18005386962000997
sS'CTCAGC'
p3666
F0.40489318219117665
sS'CCAACT'
p3667
F-0.25472438340927817
sS'GAGTAT'
p3668
F0.4444091662052327
sS'GCTTCA'
p3669
F0.062047029485706263
sS'GTGTAG'
p3670
I0
sS'TCGAGC'
p3671
F-0.5182035923381172
sS'AGTAAT'
p3672
F-0.3240937617138251
sS'GTGTAC'
p3673
F0.2965771055065376
sS'CGCCGT'
p3674
F0.10444708393068323
sS'GTGGCA'
p3675
F0.48145874185616966
sS'CATATT'
p3676
F-0.6512668221482903
sS'CTCGGA'
p3677
F0.4213156602805014
sS'CTCGGC'
p3678
F0.2620923265121155
sS'GCCGCC'
p3679
F0.321314570295303
sS'GCCGCA'
p3680
F0.12825459428779545
sS'GCCGCG'
p3681
F0.5601901748320937
sS'TATTGA'
p3682
I0
sS'ACACTT'
p3683
F-0.4220061217079525
sS'CATATG'
p3684
F-0.4046879057299491
sS'TCGCTC'
p3685
F0.050908322062939784
sS'CATATC'
p3686
F-0.9349834240256933
sS'CATATA'
p3687
F-1.0162084125833044
sS'GTCAGC'
p3688
F0.40615665084617303
sS'TACTAC'
p3689
F0.2874119518200371
sS'ACACTC'
p3690
F-0.417740879460891
sS'ACACTA'
p3691
F-0.7621575523977795
sS'ACACTG'
p3692
F-0.12614797980327708
sS'GCCGCT'
p3693
F0.21874950569319812
sS'ACCGGA'
p3694
F0.0469601632179474
sS'AAATAA'
p3695
I0
sS'ACCGGC'
p3696
F0.5628960682080186
sS'AAATAC'
p3697
F-0.01507418764532313
sS'CTTTAA'
p3698
I0
sS'ACCGGG'
p3699
F0.2689025006984529
sS'AAATAG'
p3700
I0
sS'AACTTA'
p3701
F-0.5842325348883084
sS'CAGGTA'
p3702
F-0.4726837458227169
sS'AACTTC'
p3703
F0.36254887905285355
sS'CAGGTC'
p3704
F0.406503780975679
sS'CACGAC'
p3705
F0.5974069193361826
sS'CACGAA'
p3706
F0.2276611113027415
sS'CAGGTG'
p3707
F0.49944661686362823
sS'CTTTAT'
p3708
F-0.46486505382741883
sS'AATCCC'
p3709
F0.1770664495382357
sS'AATCCA'
p3710
F-0.28729598989424954
sS'AAATAT'
p3711
F-0.4772528211514548
sS'AATCCG'
p3712
F-0.15519022657507295
sS'CACGAT'
p3713
F0.049808006090773654
sS'CAGGTT'
p3714
F0.21598560584170906
sS'AACTTT'
p3715
F-0.3198520238499724
sS'TCTGTC'
p3716
F-0.31703150986154915
sS'GGGATA'
p3717
F-0.09315077143920387
sS'GGGATC'
p3718
F0.3049926062283098
sS'GGGTGT'
p3719
F-0.8658459892362864
sS'GGAGAT'
p3720
F0.6737092128481936
sS'GATGCT'
p3721
F0.49177902363395165
sS'CGCAGT'
p3722
F0.26352801205726994
sS'GAGTCG'
p3723
F0.5813120421059328
sS'GAGCCT'
p3724
F0.7548486203721986
sS'GGAGAC'
p3725
F0.7619979478165166
sS'GGCGGC'
p3726
F0.5649690768308839
sS'GGAGAA'
p3727
F0.2411078350299879
sS'GGGTGC'
p3728
F-0.9588955814311046
sS'GGAGAG'
p3729
F0.7797471276688654
sS'TGGAAC'
p3730
F0.12653461389352164
sS'GGGTGG'
p3731
F-0.5724353904424971
sS'GAGCCA'
p3732
F0.22929379924784474
sS'CGCAGG'
p3733
F0.5128306414018515
sS'GATGCG'
p3734
F0.11006649943483413
sS'CGCAGA'
p3735
F0.48826244991111456
sS'GATGCA'
p3736
F0.348383363509878
sS'CGCAGC'
p3737
F0.392108389194715
sS'GATGCC'
p3738
F0.43367675162533925
sS'CGGATT'
p3739
F0.21368478961242182
sS'GGTAGT'
p3740
F-0.207219226579083
sS'ACCCCT'
p3741
F0.46829136898049445
sS'GCCAAT'
p3742
F0.23525780626363052
sS'GGCGGG'
p3743
F0.21874950569319812
sS'AGAAGT'
p3744
F-0.30622559674805516
sS'ACCCCA'
p3745
F0.11412535591170171
sS'GGTAGA'
p3746
F-0.004846910192678219
sS'ACCCCC'
p3747
F0.10206084451032106
sS'CGGATG'
p3748
F-0.2618600768722856
sS'GCCAAG'
p3749
F0.8216484820684292
sS'CGGATA'
p3750
F-0.036782357125730684
sS'ACCCCG'
p3751
F0.4296677346452672
sS'CGGATC'
p3752
F0.32689444767613957
sS'AGAAGA'
p3753
F-0.21434945821460097
sS'AGAAGC'
p3754
F-0.25297671713975806
sS'GCAAGA'
p3755
F0.008594006177572173
sS'AGAAGG'
p3756
F-0.08418668680672962
sS'CACTCC'
p3757
F0.13760645176122452
sS'CACTCA'
p3758
F-0.4225143657471201
sS'CACTCG'
p3759
F0.26641370029475814
sS'TGCGTT'
p3760
F-0.6670735875539473
sS'TCAGCT'
p3761
F-0.2616455574893597
sS'AGCTTT'
p3762
F-0.16125784624274445
sS'CCCCGG'
p3763
F0.05051188709072652
sS'TGCGTA'
p3764
F-0.9479001971296416
sS'CCCCGC'
p3765
F0.40908120386348973
sS'CACTCT'
p3766
F-0.07544459515639726
sS'AGCTTC'
p3767
F0.17399384829166828
sS'AGCTTA'
p3768
F-0.5035962471341792
sS'AGCTTG'
p3769
F-0.0519105505556369
sS'TTAGCT'
p3770
F-0.7995392800191115
sS'TTAGCC'
p3771
F-0.3110780995424671
sS'GCACTG'
p3772
F-0.020267269060172087
sS'TTAGCA'
p3773
F-0.6630052254195345
sS'GACCAT'
p3774
F-0.11740166568567308
sS'TTAGCG'
p3775
F-0.22774089372368464
sS'TACCGG'
p3776
F0.21410460064743464
sS'TCATAT'
p3777
F-0.7344540212364687
sS'ATAGGT'
p3778
F-0.8073046500513645
sS'ATAAGG'
p3779
F-0.3786153644263843
sS'TGTGCT'
p3780
F-0.6101889825745285
sS'AAGGGC'
p3781
F0.4339047875885219
sS'ATAAGC'
p3782
F-0.4437036648170581
sS'AAGGGA'
p3783
F0.274846867831621
sS'ATAAGA'
p3784
F-0.43601683615076714
sS'CCAGAC'
p3785
F0.4528327117265662
sS'TCTGTA'
p3786
F-0.5255107546432024
sS'CCAGAA'
p3787
F0.25300705832969567
sS'CCAGAG'
p3788
F0.5392682760281351
sS'GCAAGT'
p3789
F-0.04503741102276636
sS'TGTGCG'
p3790
F-0.7165355882797405
sS'ATAAGT'
p3791
F-0.7893467643929766
sS'ATAGGG'
p3792
F-0.19297878746447272
sS'TGTGCC'
p3793
F-0.07357253945613375
sS'ATAGGA'
p3794
F0.005908668257775084
sS'TGTGCA'
p3795
F-0.519982761077546
sS'ATAGGC'
p3796
F-0.41843166134965426
sS'GCTCGC'
p3797
F0.3765519790365698
sS'TAAGTT'
p3798
I0
sS'TTTGCG'
p3799
F-0.14419484227360974
sS'CCAGAT'
p3800
F0.3694575414441113
sS'AGACAA'
p3801
F-0.16393298030357964
sS'GACGCA'
p3802
F0.17362927787621685
sS'AGACAC'
p3803
F-0.24067077780234752
sS'TCCATT'
p3804
F-0.2076568029202855
sS'AGACAG'
p3805
F-0.003565976350565663
sS'GCTTTT'
p3806
F-0.37474717941184443
sS'TTTTCT'
p3807
F-0.9482535693882777
sS'CGCTGT'
p3808
F0.11556699866920611
sS'GACGCC'
p3809
F0.7694840522215431
sS'TCAAGA'
p3810
F-0.6203025738217199
sS'CGTGGG'
p3811
F0.22109072150810066
sS'CTATAG'
p3812
I0
sS'AGACAT'
p3813
F-0.2845480520034179
sS'CGTGGA'
p3814
F0.4816318710121014
sS'TTTTCG'
p3815
F-0.41807259189397616
sS'CCCACA'
p3816
F0.26641370029475814
sS'CGCTGC'
p3817
F0.2867352778334693
sS'TTTTCC'
p3818
F-0.7485266494981784
sS'TTTTCA'
p3819
F-0.8063874491150911
sS'CGCTGG'
p3820
F0.26913655863023145
sS'TATGGA'
p3821
F0.10046207258995685
sS'TATGGC'
p3822
F0.08278802334181921
sS'CGTAGG'
p3823
F0.3878919047935516
sS'CCCACC'
p3824
F0.665189694753137
sS'TATGGG'
p3825
F0.06120933634661344
sS'CGTAGC'
p3826
F0.12653461389352164
sS'TACCGT'
p3827
F0.4371099274637332
sS'TGGACT'
p3828
F-0.17449538177045953
sS'CGTAGT'
p3829
F-0.5160589238715281
sS'GCTCGA'
p3830
F0.23157299581220192
sS'TATGGT'
p3831
F-0.05745690624575082
sS'TGGACA'
p3832
F-0.2312069494865296
sS'TGGACC'
p3833
F0.32476031816345385
sS'TGGACG'
p3834
F0.06854266691583483
sS'CCGGTT'
p3835
F-0.23189685349484232
sS'GACCAA'
p3836
F0.23395611757982898
sS'GCTTGA'
p3837
I0
sS'TGAGAC'
p3838
I0
sS'GCTTGC'
p3839
F-0.2193077261868219
sS'TGAGAA'
p3840
I0
sS'TGAGAG'
p3841
I0
sS'GCTTGG'
p3842
F-0.24680389977318087
sS'CCTGTT'
p3843
F0.02996805245093576
sS'CCGGTG'
p3844
F0.6176784888741588
sS'CCGGTC'
p3845
F0.20950884895828553
sS'CCGGTA'
p3846
F-0.651616636490122
sS'CCTGTC'
p3847
F-0.02552571448049768
sS'CCTGTA'
p3848
F-0.19088579795862887
sS'CCTGTG'
p3849
F0.17768713634090283
sS'GCTTGT'
p3850
F-0.3831645288254914
sS'TGAGAT'
p3851
I0
sS'TCCGAA'
p3852
F-0.3568355901031423
sS'GGTTGT'
p3853
F-0.48762868649067825
sS'TCCTCA'
p3854
F0.23518890890774666
sS'TATCAG'
p3855
F0.2585237404358475
sS'TATTGC'
p3856
F-0.7664064491438057
sS'TAGCGT'
p3857
I0
sS'GGTTGG'
p3858
F-0.2919519610363025
sS'GGTTGA'
p3859
I0
sS'TTCACG'
p3860
F0.18890603813669948
sS'GGTTGC'
p3861
F-0.40936464137932693
sS'GGAAAC'
p3862
F0.05616816500477123
sS'TCCCGC'
p3863
F0.15247034798792142
sS'GTAACG'
p3864
F-0.2560305332115617
sS'CAGCGT'
p3865
F-0.06669756298066348
sS'GTAACC'
p3866
F-0.06937840162843499
sS'CGTTTT'
p3867
F-0.3710760292177525
sS'ATTCTC'
p3868
F-0.11311842559136087
sS'ATTCTA'
p3869
F-0.5275761307747224
sS'ATTCTG'
p3870
F0.11440995256795645
sS'TCATTT'
p3871
F-0.6924367513849202
sS'CAGCGA'
p3872
F0.16822554410082838
sS'CAGCGC'
p3873
F0.2511422071522643
sS'TGCTAG'
p3874
I0
sS'CAGCGG'
p3875
F0.04028884183737117
sS'CCTTGT'
p3876
F-0.2509707344421595
sS'TCATTC'
p3877
F-0.4881145047424613
sS'CGTTTG'
p3878
F-0.05917659052486769
sS'CGTTTA'
p3879
F-0.5933248659023888
sS'ATTCTT'
p3880
F-0.17359528925779705
sS'CGTTTC'
p3881
F-0.061965903143979616
sS'TGGCAA'
p3882
F-0.5224614154806586
sS'CCGATC'
p3883
F0.10805120819950846
sS'TGGCAG'
p3884
F0.24964985804583156
sS'GCTGAG'
p3885
F0.5917742434042015
sS'GCTGAA'
p3886
F0.2679675283633798
sS'GCTGAC'
p3887
F0.4241449502993656
sS'TGGCAT'
p3888
F-0.3696728148083146
sS'GCTGAT'
p3889
F0.2245567772709456
sS'CCGATG'
p3890
F0.4740220107965043
sS'GGCCGC'
p3891
F0.5340199404717897
sS'GAACTT'
p3892
F-0.1074174447790722
sS'GGCCGA'
p3893
F0.34995975174483307
sS'GGCAAT'
p3894
F0.18452656087120842
sS'CTGATT'
p3895
F-0.12313756767099127
sS'CCATCG'
p3896
F0.34559494634238297
sS'CTAAAT'
p3897
F-0.4540999845930437
sS'CCATCC'
p3898
F-0.3520826618779853
sS'CCATCA'
p3899
F-0.06924475199454341
sS'CTGATC'
p3900
F0.4263076058380003
sS'CTGATA'
p3901
F-0.5221586657424288
sS'GAGTTT'
p3902
F0.28495347492673134
sS'CTGATG'
p3903
F0.1846550313593226
sS'GGCAAA'
p3904
F0.42338866890336657
sS'CTAAAG'
p3905
F0.12444162438767786
sS'CCATCT'
p3906
F0.026463892386005248
sS'CTAAAC'
p3907
F-0.10606509118615727
sS'CTAAAA'
p3908
F-0.4142239310324432
sS'GACACC'
p3909
F0.509337475994759
sS'GACACA'
p3910
F0.20179642462486452
sS'GACACG'
p3911
F0.40547707959466445
sS'GCGCCT'
p3912
F0.2069765124428905
sS'TTCACC'
p3913
F0.253576475589586
sS'TAGCGA'
p3914
I0
sS'TACGAG'
p3915
F1.014967603044505
sS'TACGAC'
p3916
F0.9142311821833957
sS'GACACT'
p3917
F0.33529498970257093
sS'GGCGAT'
p3918
F0.6773186861311634
sS'TGTTAC'
p3919
F-0.595240169919153
sS'ACGCTG'
p3920
F0.4617443173361095
sS'ACGCTA'
p3921
F-0.11379754141684788
sS'ACGCTC'
p3922
F0.28414246725518977
sS'TCGATG'
p3923
F0.22403510215488195
sS'TCGAGG'
p3924
F0.018440433932951507
sS'TCGATC'
p3925
F0.06665852304128343
sS'ACGCTT'
p3926
F-0.2376491823839337
sS'TCTGGG'
p3927
F0.018440433932951507
sS'GCATTG'
p3928
F-0.183835408024603
sS'GAACTG'
p3929
F0.29793075174082295
sS'TCGATT'
p3930
F-0.6069069015206406
sS'TCGGCA'
p3931
F0.008255506953963805
sS'AGGCAC'
p3932
F-0.3505866408261408
sS'TTTTGA'
p3933
I0
sS'AACCAA'
p3934
F-0.32033430538971047
sS'TGCCGG'
p3935
F0.019915119498957124
sS'AACCAC'
p3936
F-0.037959307661505
sS'ACGAAC'
p3937
F0.29412668816179066
sS'AACCAG'
p3938
F0.3084341532016675
sS'TGCCGA'
p3939
F0.4244288957046443
sS'TTGGAC'
p3940
F0.024796076364132485
sS'TCTGGA'
p3941
F0.38414796365967696
sS'GAGTTC'
p3942
F0.6711179374997005
sS'TGCCGT'
p3943
F-0.001093261225559574
sS'AACCAT'
p3944
F-0.16795557400395442
sS'AACAGA'
p3945
F-0.059479002960945555
sS'ACGTCG'
p3946
F0.4629565846463442
sS'AACAGC'
p3947
F0.17991150132438868
sS'ACGTCC'
p3948
F0.19269534994863552
sS'AACAGG'
p3949
F-0.18934450280937862
sS'ACGTCA'
p3950
F-0.4973885237798345
sS'CCCAAG'
p3951
F0.6928063413190004
sS'GTCCCT'
p3952
F-0.17731854110683865
sS'GACGAA'
p3953
F0.8389802297642033
sS'CCCAAC'
p3954
F0.5804773417107911
sS'CCCAAA'
p3955
F0.40908120386348973
sS'ACGTCT'
p3956
F0.07328910194029647
sS'GGGAGA'
p3957
F-0.13884726130002406
sS'AACAGT'
p3958
F-0.01248734404156249
sS'GGGAGC'
p3959
F0.5409688004271174
sS'CCCAAT'
p3960
F0.08874605300412183
sS'GACGAT'
p3961
F0.9841577055058587
sS'GGGCGC'
p3962
F-0.5570605288755429
sS'GGGCGA'
p3963
F-0.3279788500806685
sS'GGGCGG'
p3964
F-0.28988880047252913
sS'TCTCTT'
p3965
F-0.20678120891017962
sS'TGGGGG'
p3966
F-0.17666866978478815
sS'GTACAG'
p3967
F0.029028724530512678
sS'TCATAC'
p3968
F-0.3862720766277763
sS'CAGAAT'
p3969
F0.05414997732397619
sS'ACGACT'
p3970
F-0.01688752840879147
sS'TCTCTC'
p3971
F-0.2498382840432514
sS'TCTCTA'
p3972
F-0.2560305332115617
sS'TCTCTG'
p3973
F0.35167973213910686
sS'GGGCGT'
p3974
F-0.1681552037394405
sS'CAGAAA'
p3975
F0.05124404991977521
sS'CAGAAC'
p3976
F0.2972944227157694
sS'ACGACG'
p3977
F0.47602799349410285
sS'CAGAAG'
p3978
F0.5317281436922048
sS'CACTTT'
p3979
F-0.3320120063781101
sS'CCTAAT'
p3980
F-0.09763192364929439
sS'GCATTC'
p3981
F-0.26224594494023173
sS'GTCATT'
p3982
F0.10206084451032106
sS'TGCCCC'
p3983
F0.32574399804470716
sS'CACTTG'
p3984
F-0.2645539812771569
sS'CCTAAC'
p3985
F-0.024955150156824573
sS'CCTAAA'
p3986
F0.015618497546196356
sS'CACTTC'
p3987
F0.013119761173539985
sS'CCTAAG'
p3988
F0.4568539856594904
sS'CACTTA'
p3989
F-0.7478967806685488
sS'GTCCCA'
p3990
F0.07177323833534718
sS'GTCCCC'
p3991
F0.3552560915547815
sS'AAGATT'
p3992
F0.30718879033649343
sS'ATCGAT'
p3993
F0.5340199404717896
sS'GACTCG'
p3994
F0.36878660900431676
sS'CTCATC'
p3995
F0.4409029164808723
sS'GACTCC'
p3996
F0.8936264766623591
sS'CTCATA'
p3997
F-0.36604359188996616
sS'GACTCA'
p3998
F0.30578439219403264
sS'AAGATA'
p3999
F-0.1655929869748401
sS'AAGATC'
p4000
F0.7983721034270141
sS'AAGATG'
p4001
F0.39041443549759364
sS'GACTCT'
p4002
F0.5371110174489315
sS'ATCGAG'
p4003
F0.9587531257317639
sS'TTGAGA'
p4004
F-0.5485944814142292
sS'ATCGAA'
p4005
F0.4131211816652298
sS'ATCGAC'
p4006
F0.8644832088899158
sS'ATATTT'
p4007
F-1.0920922111954772
sS'ACGGTA'
p4008
F-0.2874693263491162
sS'GGACTC'
p4009
F0.3743190976042777
sS'ATAGTT'
p4010
F-0.5155210978190123
sS'CTACCA'
p4011
F0.07328910194029656
sS'TACTGT'
p4012
F-0.3355185385740089
sS'ATATTC'
p4013
F-0.7212525646315164
sS'ATATTA'
p4014
F-1.2349879304719842
sS'ATATTG'
p4015
F-1.522884910864683
sS'ATAGTA'
p4016
F-1.0058921441073283
sS'ATAGTC'
p4017
F-0.22534808060779435
sS'TACTGG'
p4018
F0.08758815425182453
sS'ATAGTG'
p4019
F-0.2930939403477405
sS'GATCGA'
p4020
F0.5824665695432459
sS'CAGGCA'
p4021
F0.228849832597524
sS'AGGAAG'
p4022
F0.5674436959587392
sS'CATCCG'
p4023
F0.07162194257283355
sS'AGGAAA'
p4024
F0.10107043477229916
sS'CATCCA'
p4025
F-0.5728794543686127
sS'CAGGCG'
p4026
F0.7918546623396961
sS'CATCCC'
p4027
F0.1588645705500718
sS'TTATGA'
p4028
I0
sS'ATAGAA'
p4029
F-0.3405048256535329
sS'CGGAGT'
p4030
F0.2411078350299879
sS'TTATGG'
p4031
F-1.2384647591154576
sS'CATCCT'
p4032
F-0.06021471334421619
sS'AGGAAT'
p4033
F-0.12452140680862092
sS'CAGGCT'
p4034
F0.17386849268915183
sS'ACGGAT'
p4035
F0.5762176202662445
sS'CGGAGA'
p4036
F-0.11650343479277278
sS'CGGAGC'
p4037
F-0.39255114236967686
sS'TTATGT'
p4038
F-1.1188349821084618
sS'CAGGCC'
p4039
F0.5568828234312939
sS'CGGAGG'
p4040
F-0.13613425061763287
sS'ATGGAA'
p4041
F0.19764214124889756
sS'ATGGAC'
p4042
F0.609329293278605
sS'ATGGAG'
p4043
F0.7507806630666001
sS'CGCTTG'
p4044
F0.18723245424713333
sS'CGCTTA'
p4045
F-0.13498684048678591
sS'CGCTTC'
p4046
F0.5627315938709258
sS'TGAACA'
p4047
I0
sS'ATGGAT'
p4048
F0.18163888773667103
sS'TTTGCA'
p4049
F-0.37816555135468355
sS'CGCTTT'
p4050
F0.256538066582598
sS'GCCGTG'
p4051
F0.6363249853665521
sS'GATCGT'
p4052
F0.5588435241968217
sS'TTTGCC'
p4053
F0.2695269357189011
sS'TTGTGA'
p4054
I0
sS'GAAAAG'
p4055
F0.1735209975144916
sS'GAAAAC'
p4056
F0.1845738876823382
sS'ATAGAT'
p4057
F-0.228382866467193
sS'GAAAAA'
p4058
F-0.21871320934941724
sS'GTTCCT'
p4059
F0.18243357136536456
sS'TAAGTA'
p4060
I0
sS'TAGGGC'
p4061
I0
sS'ACGGTT'
p4062
F-0.07657263340592325
sS'GAAAAT'
p4063
F-0.284493768585823
sS'ACAAGG'
p4064
F-0.09832485476064048
sS'ACAAGA'
p4065
F-1.4164530953675665
sS'ACAAGC'
p4066
F-0.1597721249497532
sS'ACACGT'
p4067
F-0.38910889595865955
sS'CTGCGT'
p4068
F0.2531933308960954
sS'GACGTC'
p4069
F0.6801479761500276
sS'GCGGAG'
p4070
F0.6557535372048783
sS'CATAAG'
p4071
F-0.19926651130351983
sS'GCGGAA'
p4072
F0.2932858466950595
sS'CATAAA'
p4073
F-0.9134252277284285
sS'GCCAAC'
p4074
F0.48297685344943064
sS'CATAAC'
p4075
F-0.8091332610977726
sS'ACACGC'
p4076
F-0.06723505621994294
sS'ACAAGT'
p4077
F-0.8759757658240779
sS'ACACGA'
p4078
F0.1800538696200099
sS'ACACGG'
p4079
F0.16981965272945154
sS'CATAAT'
p4080
F-0.9182777305228407
sS'GCGGAT'
p4081
F-0.09278916069233108
sS'GCACAT'
p4082
F-0.07377167489999288
sS'CTGCGG'
p4083
F0.6367932274409172
sS'CTGCGA'
p4084
F0.12653461389352164
sS'CTGCGC'
p4085
F0.5165960485550495
sS'CGGCAA'
p4086
F0.07328910194029656
sS'ACCGGT'
p4087
F0.1945316929886328
sS'CGGCAG'
p4088
F0.4912679600508397
sS'GACGCG'
p4089
F0.37948933107036803
sS'CCTCCT'
p4090
F0.5340199404717897
sS'TGTTGA'
p4091
I0
sS'CGGCAT'
p4092
F0.01697073885217586
sS'CCTCCC'
p4093
F0.3227213731887415
sS'CCTCCA'
p4094
F0.48294991294001455
sS'CACGCC'
p4095
F0.33597410552805806
sS'CCTCCG'
p4096
F0.3268944476761397
s.